
gemm-sycl:     file format elf64-littleaarch64


Disassembly of section .init:

0000000000401bc0 <_init>:
  401bc0:	a9bf7bfd 	stp	x29, x30, [sp, #-16]!
  401bc4:	910003fd 	mov	x29, sp
  401bc8:	94000124 	bl	402058 <call_weak_fn>
  401bcc:	a8c17bfd 	ldp	x29, x30, [sp], #16
  401bd0:	d65f03c0 	ret

Disassembly of section .plt:

0000000000401be0 <.plt>:
  401be0:	a9bf7bf0 	stp	x16, x30, [sp, #-16]!
  401be4:	d00000d0 	adrp	x16, 41b000 <GCC_except_table33+0xff8c>
  401be8:	f947fe11 	ldr	x17, [x16, #4088]
  401bec:	913fe210 	add	x16, x16, #0xff8
  401bf0:	d61f0220 	br	x17
  401bf4:	d503201f 	nop
  401bf8:	d503201f 	nop
  401bfc:	d503201f 	nop

0000000000401c00 <_ZNSo3putEc@plt>:
  401c00:	f00000d0 	adrp	x16, 41c000 <_ZNSo3putEc@GLIBCXX_3.4>
  401c04:	f9400211 	ldr	x17, [x16]
  401c08:	91000210 	add	x16, x16, #0x0
  401c0c:	d61f0220 	br	x17

0000000000401c10 <_ZNSt6chrono3_V212system_clock3nowEv@plt>:
  401c10:	f00000d0 	adrp	x16, 41c000 <_ZNSo3putEc@GLIBCXX_3.4>
  401c14:	f9400611 	ldr	x17, [x16, #8]
  401c18:	91002210 	add	x16, x16, #0x8
  401c1c:	d61f0220 	br	x17

0000000000401c20 <memcpy@plt>:
  401c20:	f00000d0 	adrp	x16, 41c000 <_ZNSo3putEc@GLIBCXX_3.4>
  401c24:	f9400a11 	ldr	x17, [x16, #16]
  401c28:	91004210 	add	x16, x16, #0x10
  401c2c:	d61f0220 	br	x17

0000000000401c30 <_ZN2cl4sycl5queue10wait_proxyERKNS0_6detail13code_locationE@plt>:
  401c30:	f00000d0 	adrp	x16, 41c000 <_ZNSo3putEc@GLIBCXX_3.4>
  401c34:	f9400e11 	ldr	x17, [x16, #24]
  401c38:	91006210 	add	x16, x16, #0x18
  401c3c:	d61f0220 	br	x17

0000000000401c40 <_ZNK2cl4sycl5queue10get_deviceEv@plt>:
  401c40:	f00000d0 	adrp	x16, 41c000 <_ZNSo3putEc@GLIBCXX_3.4>
  401c44:	f9401211 	ldr	x17, [x16, #32]
  401c48:	91008210 	add	x16, x16, #0x20
  401c4c:	d61f0220 	br	x17

0000000000401c50 <_ZN2cl4sycl5queueC2ERKNS0_6deviceERKSt8functionIFvNS0_14exception_listEEERKNS0_13property_listE@plt>:
  401c50:	f00000d0 	adrp	x16, 41c000 <_ZNSo3putEc@GLIBCXX_3.4>
  401c54:	f9401611 	ldr	x17, [x16, #40]
  401c58:	9100a210 	add	x16, x16, #0x28
  401c5c:	d61f0220 	br	x17

0000000000401c60 <_ZSt9terminatev@plt>:
  401c60:	f00000d0 	adrp	x16, 41c000 <_ZNSo3putEc@GLIBCXX_3.4>
  401c64:	f9401a11 	ldr	x17, [x16, #48]
  401c68:	9100c210 	add	x16, x16, #0x30
  401c6c:	d61f0220 	br	x17

0000000000401c70 <_ZNK2cl4sycl9exception4whatEv@plt>:
  401c70:	f00000d0 	adrp	x16, 41c000 <_ZNSo3putEc@GLIBCXX_3.4>
  401c74:	f9401e11 	ldr	x17, [x16, #56]
  401c78:	9100e210 	add	x16, x16, #0x38
  401c7c:	d61f0220 	br	x17

0000000000401c80 <strlen@plt>:
  401c80:	f00000d0 	adrp	x16, 41c000 <_ZNSo3putEc@GLIBCXX_3.4>
  401c84:	f9402211 	ldr	x17, [x16, #64]
  401c88:	91010210 	add	x16, x16, #0x40
  401c8c:	d61f0220 	br	x17

0000000000401c90 <_ZNSt7__cxx1112basic_stringIcSt11char_traitsIcESaIcEE9_M_appendEPKcm@plt>:
  401c90:	f00000d0 	adrp	x16, 41c000 <_ZNSo3putEc@GLIBCXX_3.4>
  401c94:	f9402611 	ldr	x17, [x16, #72]
  401c98:	91012210 	add	x16, x16, #0x48
  401c9c:	d61f0220 	br	x17

0000000000401ca0 <_ZSt25__throw_bad_function_callv@plt>:
  401ca0:	f00000d0 	adrp	x16, 41c000 <_ZNSo3putEc@GLIBCXX_3.4>
  401ca4:	f9402a11 	ldr	x17, [x16, #80]
  401ca8:	91014210 	add	x16, x16, #0x50
  401cac:	d61f0220 	br	x17

0000000000401cb0 <_ZN2cl4sycl15make_error_codeENS0_4errcE@plt>:
  401cb0:	f00000d0 	adrp	x16, 41c000 <_ZNSo3putEc@GLIBCXX_3.4>
  401cb4:	f9402e11 	ldr	x17, [x16, #88]
  401cb8:	91016210 	add	x16, x16, #0x58
  401cbc:	d61f0220 	br	x17

0000000000401cc0 <__cxa_begin_catch@plt>:
  401cc0:	f00000d0 	adrp	x16, 41c000 <_ZNSo3putEc@GLIBCXX_3.4>
  401cc4:	f9403211 	ldr	x17, [x16, #96]
  401cc8:	91018210 	add	x16, x16, #0x60
  401ccc:	d61f0220 	br	x17

0000000000401cd0 <_ZN2cl4sycl20aligned_alloc_sharedEmmRKNS0_6deviceERKNS0_7contextERKNS0_13property_listENS0_6detail13code_locationE@plt>:
  401cd0:	f00000d0 	adrp	x16, 41c000 <_ZNSo3putEc@GLIBCXX_3.4>
  401cd4:	f9403611 	ldr	x17, [x16, #104]
  401cd8:	9101a210 	add	x16, x16, #0x68
  401cdc:	d61f0220 	br	x17

0000000000401ce0 <_ZSt4endlIcSt11char_traitsIcEERSt13basic_ostreamIT_T0_ES6_@plt>:
  401ce0:	f00000d0 	adrp	x16, 41c000 <_ZNSo3putEc@GLIBCXX_3.4>
  401ce4:	f9403a11 	ldr	x17, [x16, #112]
  401ce8:	9101c210 	add	x16, x16, #0x70
  401cec:	d61f0220 	br	x17

0000000000401cf0 <__cxa_allocate_exception@plt>:
  401cf0:	f00000d0 	adrp	x16, 41c000 <_ZNSo3putEc@GLIBCXX_3.4>
  401cf4:	f9403e11 	ldr	x17, [x16, #120]
  401cf8:	9101e210 	add	x16, x16, #0x78
  401cfc:	d61f0220 	br	x17

0000000000401d00 <strtol@plt>:
  401d00:	f00000d0 	adrp	x16, 41c000 <_ZNSo3putEc@GLIBCXX_3.4>
  401d04:	f9404211 	ldr	x17, [x16, #128]
  401d08:	91020210 	add	x16, x16, #0x80
  401d0c:	d61f0220 	br	x17

0000000000401d10 <__assert_fail@plt>:
  401d10:	f00000d0 	adrp	x16, 41c000 <_ZNSo3putEc@GLIBCXX_3.4>
  401d14:	f9404611 	ldr	x17, [x16, #136]
  401d18:	91022210 	add	x16, x16, #0x88
  401d1c:	d61f0220 	br	x17

0000000000401d20 <_ZSt20__throw_length_errorPKc@plt>:
  401d20:	f00000d0 	adrp	x16, 41c000 <_ZNSo3putEc@GLIBCXX_3.4>
  401d24:	f9404a11 	ldr	x17, [x16, #144]
  401d28:	91024210 	add	x16, x16, #0x90
  401d2c:	d61f0220 	br	x17

0000000000401d30 <_ZN2cl4sycl5queue17discard_or_returnERKNS0_5eventE@plt>:
  401d30:	f00000d0 	adrp	x16, 41c000 <_ZNSo3putEc@GLIBCXX_3.4>
  401d34:	f9404e11 	ldr	x17, [x16, #152]
  401d38:	91026210 	add	x16, x16, #0x98
  401d3c:	d61f0220 	br	x17

0000000000401d40 <_ZN2cl4sycl18aligned_alloc_hostEmmRKNS0_7contextERKNS0_13property_listENS0_6detail13code_locationE@plt>:
  401d40:	f00000d0 	adrp	x16, 41c000 <_ZNSo3putEc@GLIBCXX_3.4>
  401d44:	f9405211 	ldr	x17, [x16, #160]
  401d48:	91028210 	add	x16, x16, #0xa0
  401d4c:	d61f0220 	br	x17

0000000000401d50 <_ZNSo5flushEv@plt>:
  401d50:	f00000d0 	adrp	x16, 41c000 <_ZNSo3putEc@GLIBCXX_3.4>
  401d54:	f9405611 	ldr	x17, [x16, #168]
  401d58:	9102a210 	add	x16, x16, #0xa8
  401d5c:	d61f0220 	br	x17

0000000000401d60 <__sycl_unregister_lib@plt>:
  401d60:	f00000d0 	adrp	x16, 41c000 <_ZNSo3putEc@GLIBCXX_3.4>
  401d64:	f9405a11 	ldr	x17, [x16, #176]
  401d68:	9102c210 	add	x16, x16, #0xb0
  401d6c:	d61f0220 	br	x17

0000000000401d70 <_ZSt19__throw_logic_errorPKc@plt>:
  401d70:	f00000d0 	adrp	x16, 41c000 <_ZNSo3putEc@GLIBCXX_3.4>
  401d74:	f9405e11 	ldr	x17, [x16, #184]
  401d78:	9102e210 	add	x16, x16, #0xb8
  401d7c:	d61f0220 	br	x17

0000000000401d80 <__cxa_free_exception@plt>:
  401d80:	f00000d0 	adrp	x16, 41c000 <_ZNSo3putEc@GLIBCXX_3.4>
  401d84:	f9406211 	ldr	x17, [x16, #192]
  401d88:	91030210 	add	x16, x16, #0xc0
  401d8c:	d61f0220 	br	x17

0000000000401d90 <_ZN2cl4sycl7handler24GetRangeRoundingSettingsERmS2_S2_@plt>:
  401d90:	f00000d0 	adrp	x16, 41c000 <_ZNSo3putEc@GLIBCXX_3.4>
  401d94:	f9406611 	ldr	x17, [x16, #200]
  401d98:	91032210 	add	x16, x16, #0xc8
  401d9c:	d61f0220 	br	x17

0000000000401da0 <__libc_start_main@plt>:
  401da0:	f00000d0 	adrp	x16, 41c000 <_ZNSo3putEc@GLIBCXX_3.4>
  401da4:	f9406a11 	ldr	x17, [x16, #208]
  401da8:	91034210 	add	x16, x16, #0xd0
  401dac:	d61f0220 	br	x17

0000000000401db0 <_ZdlPv@plt>:
  401db0:	f00000d0 	adrp	x16, 41c000 <_ZNSo3putEc@GLIBCXX_3.4>
  401db4:	f9406e11 	ldr	x17, [x16, #216]
  401db8:	91036210 	add	x16, x16, #0xd8
  401dbc:	d61f0220 	br	x17

0000000000401dc0 <_ZStlsISt11char_traitsIcEERSt13basic_ostreamIcT_ES5_PKc@plt>:
  401dc0:	f00000d0 	adrp	x16, 41c000 <_ZNSo3putEc@GLIBCXX_3.4>
  401dc4:	f9407211 	ldr	x17, [x16, #224]
  401dc8:	91038210 	add	x16, x16, #0xe0
  401dcc:	d61f0220 	br	x17

0000000000401dd0 <_Znwm@plt>:
  401dd0:	f00000d0 	adrp	x16, 41c000 <_ZNSo3putEc@GLIBCXX_3.4>
  401dd4:	f9407611 	ldr	x17, [x16, #232]
  401dd8:	9103a210 	add	x16, x16, #0xe8
  401ddc:	d61f0220 	br	x17

0000000000401de0 <__sycl_register_lib@plt>:
  401de0:	f00000d0 	adrp	x16, 41c000 <_ZNSo3putEc@GLIBCXX_3.4>
  401de4:	f9407a11 	ldr	x17, [x16, #240]
  401de8:	9103c210 	add	x16, x16, #0xf0
  401dec:	d61f0220 	br	x17

0000000000401df0 <_ZN2cl4sycl6detail6OSUtil17getOSModuleHandleEPKv@plt>:
  401df0:	f00000d0 	adrp	x16, 41c000 <_ZNSo3putEc@GLIBCXX_3.4>
  401df4:	f9407e11 	ldr	x17, [x16, #248]
  401df8:	9103e210 	add	x16, x16, #0xf8
  401dfc:	d61f0220 	br	x17

0000000000401e00 <__cxa_atexit@plt>:
  401e00:	f00000d0 	adrp	x16, 41c000 <_ZNSo3putEc@GLIBCXX_3.4>
  401e04:	f9408211 	ldr	x17, [x16, #256]
  401e08:	91040210 	add	x16, x16, #0x100
  401e0c:	d61f0220 	br	x17

0000000000401e10 <_ZSt16__ostream_insertIcSt11char_traitsIcEERSt13basic_ostreamIT_T0_ES6_PKS3_l@plt>:
  401e10:	f00000d0 	adrp	x16, 41c000 <_ZNSo3putEc@GLIBCXX_3.4>
  401e14:	f9408611 	ldr	x17, [x16, #264]
  401e18:	91042210 	add	x16, x16, #0x108
  401e1c:	d61f0220 	br	x17

0000000000401e20 <_ZNKSt5ctypeIcE13_M_widen_initEv@plt>:
  401e20:	f00000d0 	adrp	x16, 41c000 <_ZNSo3putEc@GLIBCXX_3.4>
  401e24:	f9408a11 	ldr	x17, [x16, #272]
  401e28:	91044210 	add	x16, x16, #0x110
  401e2c:	d61f0220 	br	x17

0000000000401e30 <_ZNK2cl4sycl5queue11get_contextEv@plt>:
  401e30:	f00000d0 	adrp	x16, 41c000 <_ZNSo3putEc@GLIBCXX_3.4>
  401e34:	f9408e11 	ldr	x17, [x16, #280]
  401e38:	91046210 	add	x16, x16, #0x118
  401e3c:	d61f0220 	br	x17

0000000000401e40 <_ZSt16__throw_bad_castv@plt>:
  401e40:	f00000d0 	adrp	x16, 41c000 <_ZNSo3putEc@GLIBCXX_3.4>
  401e44:	f9409211 	ldr	x17, [x16, #288]
  401e48:	91048210 	add	x16, x16, #0x120
  401e4c:	d61f0220 	br	x17

0000000000401e50 <_ZN2cl4sycl9exceptionC2ESt10error_codeSt10shared_ptrINS0_7contextEERKNSt7__cxx1112basic_stringIcSt11char_traitsIcESaIcEEE@plt>:
  401e50:	f00000d0 	adrp	x16, 41c000 <_ZNSo3putEc@GLIBCXX_3.4>
  401e54:	f9409611 	ldr	x17, [x16, #296]
  401e58:	9104a210 	add	x16, x16, #0x128
  401e5c:	d61f0220 	br	x17

0000000000401e60 <_ZN2cl4sycl6detail17HostProfilingInfo5startEv@plt>:
  401e60:	f00000d0 	adrp	x16, 41c000 <_ZNSo3putEc@GLIBCXX_3.4>
  401e64:	f9409a11 	ldr	x17, [x16, #304]
  401e68:	9104c210 	add	x16, x16, #0x130
  401e6c:	d61f0220 	br	x17

0000000000401e70 <_ZN2cl4sycl6detail17HostProfilingInfo3endEv@plt>:
  401e70:	f00000d0 	adrp	x16, 41c000 <_ZNSo3putEc@GLIBCXX_3.4>
  401e74:	f9409e11 	ldr	x17, [x16, #312]
  401e78:	9104e210 	add	x16, x16, #0x138
  401e7c:	d61f0220 	br	x17

0000000000401e80 <vsnprintf@plt>:
  401e80:	f00000d0 	adrp	x16, 41c000 <_ZNSo3putEc@GLIBCXX_3.4>
  401e84:	f940a211 	ldr	x17, [x16, #320]
  401e88:	91050210 	add	x16, x16, #0x140
  401e8c:	d61f0220 	br	x17

0000000000401e90 <_ZN2cl4sycl6detail18stringifyErrorCodeEi@plt>:
  401e90:	f00000d0 	adrp	x16, 41c000 <_ZNSo3putEc@GLIBCXX_3.4>
  401e94:	f940a611 	ldr	x17, [x16, #328]
  401e98:	91052210 	add	x16, x16, #0x148
  401e9c:	d61f0220 	br	x17

0000000000401ea0 <_ZN2cl4sycl7handler22verifyUsedKernelBundleERKNSt7__cxx1112basic_stringIcSt11char_traitsIcESaIcEEE@plt>:
  401ea0:	f00000d0 	adrp	x16, 41c000 <_ZNSo3putEc@GLIBCXX_3.4>
  401ea4:	f940aa11 	ldr	x17, [x16, #336]
  401ea8:	91054210 	add	x16, x16, #0x150
  401eac:	d61f0220 	br	x17

0000000000401eb0 <strcmp@plt>:
  401eb0:	f00000d0 	adrp	x16, 41c000 <_ZNSo3putEc@GLIBCXX_3.4>
  401eb4:	f940ae11 	ldr	x17, [x16, #344]
  401eb8:	91056210 	add	x16, x16, #0x158
  401ebc:	d61f0220 	br	x17

0000000000401ec0 <_ZNSt8ios_base4InitC1Ev@plt>:
  401ec0:	f00000d0 	adrp	x16, 41c000 <_ZNSo3putEc@GLIBCXX_3.4>
  401ec4:	f940b211 	ldr	x17, [x16, #352]
  401ec8:	91058210 	add	x16, x16, #0x160
  401ecc:	d61f0220 	br	x17

0000000000401ed0 <_ZNSt7__cxx1112basic_stringIcSt11char_traitsIcESaIcEE10_M_replaceEmmPKcm@plt>:
  401ed0:	f00000d0 	adrp	x16, 41c000 <_ZNSo3putEc@GLIBCXX_3.4>
  401ed4:	f940b611 	ldr	x17, [x16, #360]
  401ed8:	9105a210 	add	x16, x16, #0x168
  401edc:	d61f0220 	br	x17

0000000000401ee0 <abort@plt>:
  401ee0:	f00000d0 	adrp	x16, 41c000 <_ZNSo3putEc@GLIBCXX_3.4>
  401ee4:	f940ba11 	ldr	x17, [x16, #368]
  401ee8:	9105c210 	add	x16, x16, #0x170
  401eec:	d61f0220 	br	x17

0000000000401ef0 <_ZNSo9_M_insertIdEERSoT_@plt>:
  401ef0:	f00000d0 	adrp	x16, 41c000 <_ZNSo3putEc@GLIBCXX_3.4>
  401ef4:	f940be11 	ldr	x17, [x16, #376]
  401ef8:	9105e210 	add	x16, x16, #0x178
  401efc:	d61f0220 	br	x17

0000000000401f00 <__gxx_personality_v0@plt>:
  401f00:	f00000d0 	adrp	x16, 41c000 <_ZNSo3putEc@GLIBCXX_3.4>
  401f04:	f940c211 	ldr	x17, [x16, #384]
  401f08:	91060210 	add	x16, x16, #0x180
  401f0c:	d61f0220 	br	x17

0000000000401f10 <_ZN2cl4sycl7handler28extractArgsAndReqsFromLambdaEPcmPKNS0_6detail19kernel_param_desc_tEb@plt>:
  401f10:	f00000d0 	adrp	x16, 41c000 <_ZNSo3putEc@GLIBCXX_3.4>
  401f14:	f940c611 	ldr	x17, [x16, #392]
  401f18:	91062210 	add	x16, x16, #0x188
  401f1c:	d61f0220 	br	x17

0000000000401f20 <__cxa_throw@plt>:
  401f20:	f00000d0 	adrp	x16, 41c000 <_ZNSo3putEc@GLIBCXX_3.4>
  401f24:	f940ca11 	ldr	x17, [x16, #400]
  401f28:	91064210 	add	x16, x16, #0x190
  401f2c:	d61f0220 	br	x17

0000000000401f30 <exit@plt>:
  401f30:	f00000d0 	adrp	x16, 41c000 <_ZNSo3putEc@GLIBCXX_3.4>
  401f34:	f940ce11 	ldr	x17, [x16, #408]
  401f38:	91066210 	add	x16, x16, #0x198
  401f3c:	d61f0220 	br	x17

0000000000401f40 <_ZN2cl4sycl5queue11submit_implESt8functionIFvRNS0_7handlerEEERKNS0_6detail13code_locationE@plt>:
  401f40:	f00000d0 	adrp	x16, 41c000 <_ZNSo3putEc@GLIBCXX_3.4>
  401f44:	f940d211 	ldr	x17, [x16, #416]
  401f48:	91068210 	add	x16, x16, #0x1a0
  401f4c:	d61f0220 	br	x17

0000000000401f50 <_Unwind_Resume@plt>:
  401f50:	f00000d0 	adrp	x16, 41c000 <_ZNSo3putEc@GLIBCXX_3.4>
  401f54:	f940d611 	ldr	x17, [x16, #424]
  401f58:	9106a210 	add	x16, x16, #0x1a8
  401f5c:	d61f0220 	br	x17

0000000000401f60 <_ZNSt7__cxx1112basic_stringIcSt11char_traitsIcESaIcEE9_M_createERmm@plt>:
  401f60:	f00000d0 	adrp	x16, 41c000 <_ZNSo3putEc@GLIBCXX_3.4>
  401f64:	f940da11 	ldr	x17, [x16, #432]
  401f68:	9106c210 	add	x16, x16, #0x1b0
  401f6c:	d61f0220 	br	x17

0000000000401f70 <_ZNSt9exceptionD2Ev@plt>:
  401f70:	f00000d0 	adrp	x16, 41c000 <_ZNSo3putEc@GLIBCXX_3.4>
  401f74:	f940de11 	ldr	x17, [x16, #440]
  401f78:	9106e210 	add	x16, x16, #0x1b8
  401f7c:	d61f0220 	br	x17

0000000000401f80 <__gmon_start__@plt>:
  401f80:	f00000d0 	adrp	x16, 41c000 <_ZNSo3putEc@GLIBCXX_3.4>
  401f84:	f940e211 	ldr	x17, [x16, #448]
  401f88:	91070210 	add	x16, x16, #0x1c0
  401f8c:	d61f0220 	br	x17

0000000000401f90 <_ZN2cl4sycl7handler20DisableRangeRoundingEv@plt>:
  401f90:	f00000d0 	adrp	x16, 41c000 <_ZNSo3putEc@GLIBCXX_3.4>
  401f94:	f940e611 	ldr	x17, [x16, #456]
  401f98:	91072210 	add	x16, x16, #0x1c8
  401f9c:	d61f0220 	br	x17

0000000000401fa0 <_ZNSt8ios_base4InitD1Ev@plt>:
  401fa0:	f00000d0 	adrp	x16, 41c000 <_ZNSo3putEc@GLIBCXX_3.4>
  401fa4:	f940ea11 	ldr	x17, [x16, #464]
  401fa8:	91074210 	add	x16, x16, #0x1d0
  401fac:	d61f0220 	br	x17

Disassembly of section .text:

0000000000401fb0 <_GLOBAL__sub_I_gemm_sycl_ef0f7d.cpp>:
  401fb0:	a9be7bfd 	stp	x29, x30, [sp, #-32]!
  401fb4:	f9000bf3 	str	x19, [sp, #16]
  401fb8:	910003fd 	mov	x29, sp
  401fbc:	f00000d3 	adrp	x19, 41c000 <_ZNSo3putEc@GLIBCXX_3.4>
  401fc0:	91104673 	add	x19, x19, #0x411
  401fc4:	aa1303e0 	mov	x0, x19
  401fc8:	97ffffbe 	bl	401ec0 <_ZNSt8ios_base4InitC1Ev@plt>
  401fcc:	90000000 	adrp	x0, 401000 <_init-0xbc0>
  401fd0:	913e8000 	add	x0, x0, #0xfa0
  401fd4:	f00000c2 	adrp	x2, 41c000 <_ZNSo3putEc@GLIBCXX_3.4>
  401fd8:	91078042 	add	x2, x2, #0x1e0
  401fdc:	aa1303e1 	mov	x1, x19
  401fe0:	f9400bf3 	ldr	x19, [sp, #16]
  401fe4:	a8c27bfd 	ldp	x29, x30, [sp], #32
  401fe8:	17ffff86 	b	401e00 <__cxa_atexit@plt>

0000000000401fec <sycl.descriptor_reg>:
  401fec:	f81f0ffe 	str	x30, [sp, #-16]!
  401ff0:	b0000020 	adrp	x0, 406000 <_IO_stdin_used+0xa0>
  401ff4:	9134c000 	add	x0, x0, #0xd30
  401ff8:	97ffff7a 	bl	401de0 <__sycl_register_lib@plt>
  401ffc:	f84107fe 	ldr	x30, [sp], #16
  402000:	d65f03c0 	ret

0000000000402004 <sycl.descriptor_unreg>:
  402004:	f81f0ffe 	str	x30, [sp, #-16]!
  402008:	90000020 	adrp	x0, 406000 <_IO_stdin_used+0xa0>
  40200c:	9134c000 	add	x0, x0, #0xd30
  402010:	97ffff54 	bl	401d60 <__sycl_unregister_lib@plt>
  402014:	f84107fe 	ldr	x30, [sp], #16
  402018:	d65f03c0 	ret

000000000040201c <_start>:
  40201c:	d280001d 	mov	x29, #0x0                   	// #0
  402020:	d280001e 	mov	x30, #0x0                   	// #0
  402024:	aa0003e5 	mov	x5, x0
  402028:	f94003e1 	ldr	x1, [sp]
  40202c:	910023e2 	add	x2, sp, #0x8
  402030:	910003e6 	mov	x6, sp
  402034:	90000000 	adrp	x0, 402000 <sycl.descriptor_reg+0x14>
  402038:	91015000 	add	x0, x0, #0x54
  40203c:	f0000003 	adrp	x3, 405000 <_ZN9__gnu_cxx12__to_xstringINSt7__cxx1112basic_stringIcSt11char_traitsIcESaIcEEEcEET_PFiPT0_mPKS8_St9__va_listEmSB_z+0x10c>
  402040:	913b2063 	add	x3, x3, #0xec8
  402044:	f0000004 	adrp	x4, 405000 <_ZN9__gnu_cxx12__to_xstringINSt7__cxx1112basic_stringIcSt11char_traitsIcESaIcEEEcEET_PFiPT0_mPKS8_St9__va_listEmSB_z+0x10c>
  402048:	913d2084 	add	x4, x4, #0xf48
  40204c:	97ffff55 	bl	401da0 <__libc_start_main@plt>
  402050:	97ffffa4 	bl	401ee0 <abort@plt>

0000000000402054 <__wrap_main>:
  402054:	1400012e 	b	40250c <main>

0000000000402058 <call_weak_fn>:
  402058:	b00000c0 	adrp	x0, 41b000 <GCC_except_table33+0xff8c>
  40205c:	f947ec00 	ldr	x0, [x0, #4056]
  402060:	b4000040 	cbz	x0, 402068 <call_weak_fn+0x10>
  402064:	17ffffc7 	b	401f80 <__gmon_start__@plt>
  402068:	d65f03c0 	ret
  40206c:	d503201f 	nop

0000000000402070 <deregister_tm_clones>:
  402070:	d00000c0 	adrp	x0, 41c000 <_ZNSo3putEc@GLIBCXX_3.4>
  402074:	9107a000 	add	x0, x0, #0x1e8
  402078:	d00000c1 	adrp	x1, 41c000 <_ZNSo3putEc@GLIBCXX_3.4>
  40207c:	9107a021 	add	x1, x1, #0x1e8
  402080:	eb00003f 	cmp	x1, x0
  402084:	540000c0 	b.eq	40209c <deregister_tm_clones+0x2c>  // b.none
  402088:	f0000001 	adrp	x1, 405000 <_ZN9__gnu_cxx12__to_xstringINSt7__cxx1112basic_stringIcSt11char_traitsIcESaIcEEEcEET_PFiPT0_mPKS8_St9__va_listEmSB_z+0x10c>
  40208c:	f947b421 	ldr	x1, [x1, #3944]
  402090:	b4000061 	cbz	x1, 40209c <deregister_tm_clones+0x2c>
  402094:	aa0103f0 	mov	x16, x1
  402098:	d61f0200 	br	x16
  40209c:	d65f03c0 	ret

00000000004020a0 <register_tm_clones>:
  4020a0:	d00000c0 	adrp	x0, 41c000 <_ZNSo3putEc@GLIBCXX_3.4>
  4020a4:	9107a000 	add	x0, x0, #0x1e8
  4020a8:	d00000c1 	adrp	x1, 41c000 <_ZNSo3putEc@GLIBCXX_3.4>
  4020ac:	9107a021 	add	x1, x1, #0x1e8
  4020b0:	cb000021 	sub	x1, x1, x0
  4020b4:	d37ffc22 	lsr	x2, x1, #63
  4020b8:	8b810c41 	add	x1, x2, x1, asr #3
  4020bc:	eb8107ff 	cmp	xzr, x1, asr #1
  4020c0:	9341fc21 	asr	x1, x1, #1
  4020c4:	540000c0 	b.eq	4020dc <register_tm_clones+0x3c>  // b.none
  4020c8:	f0000002 	adrp	x2, 405000 <_ZN9__gnu_cxx12__to_xstringINSt7__cxx1112basic_stringIcSt11char_traitsIcESaIcEEEcEET_PFiPT0_mPKS8_St9__va_listEmSB_z+0x10c>
  4020cc:	f947b842 	ldr	x2, [x2, #3952]
  4020d0:	b4000062 	cbz	x2, 4020dc <register_tm_clones+0x3c>
  4020d4:	aa0203f0 	mov	x16, x2
  4020d8:	d61f0200 	br	x16
  4020dc:	d65f03c0 	ret

00000000004020e0 <__do_global_dtors_aux>:
  4020e0:	a9be7bfd 	stp	x29, x30, [sp, #-32]!
  4020e4:	910003fd 	mov	x29, sp
  4020e8:	f9000bf3 	str	x19, [sp, #16]
  4020ec:	d00000d3 	adrp	x19, 41c000 <_ZNSo3putEc@GLIBCXX_3.4>
  4020f0:	39504260 	ldrb	w0, [x19, #1040]
  4020f4:	35000080 	cbnz	w0, 402104 <__do_global_dtors_aux+0x24>
  4020f8:	97ffffde 	bl	402070 <deregister_tm_clones>
  4020fc:	52800020 	mov	w0, #0x1                   	// #1
  402100:	39104260 	strb	w0, [x19, #1040]
  402104:	f9400bf3 	ldr	x19, [sp, #16]
  402108:	a8c27bfd 	ldp	x29, x30, [sp], #32
  40210c:	d65f03c0 	ret

0000000000402110 <frame_dummy>:
  402110:	17ffffe4 	b	4020a0 <register_tm_clones>

0000000000402114 <_Z10initMatrixPfS_S_mmm>:
  402114:	9e2300a0 	ucvtf	s0, x5
  402118:	b40007c3 	cbz	x3, 402210 <_Z10initMatrixPfS_S_mmm+0xfc>
  40211c:	b4001004 	cbz	x4, 40231c <_Z10initMatrixPfS_S_mmm+0x208>
  402120:	9e230061 	ucvtf	s1, x3
  402124:	f000000b 	adrp	x11, 405000 <_ZN9__gnu_cxx12__to_xstringINSt7__cxx1112basic_stringIcSt11char_traitsIcESaIcEEEcEET_PFiPT0_mPKS8_St9__va_listEmSB_z+0x10c>
  402128:	f000000c 	adrp	x12, 405000 <_ZN9__gnu_cxx12__to_xstringINSt7__cxx1112basic_stringIcSt11char_traitsIcESaIcEEEcEET_PFiPT0_mPKS8_St9__va_listEmSB_z+0x10c>
  40212c:	5280008d 	mov	w13, #0x4                   	// #4
  402130:	5280010e 	mov	w14, #0x8                   	// #8
  402134:	aa1f03e8 	mov	x8, xzr
  402138:	927df089 	and	x9, x4, #0xfffffffffffffff8
  40213c:	9100400a 	add	x10, x0, #0x10
  402140:	3dc3e162 	ldr	q2, [x11, #3968]
  402144:	d37ef48b 	lsl	x11, x4, #2
  402148:	3dc3e584 	ldr	q4, [x12, #3984]
  40214c:	4e040423 	dup	v3.4s, v1.s[0]
  402150:	4e080da5 	dup	v5.2d, x13
  402154:	4e080dc6 	dup	v6.2d, x14
  402158:	14000006 	b	402170 <_Z10initMatrixPfS_S_mmm+0x5c>
  40215c:	91000508 	add	x8, x8, #0x1
  402160:	8b0b014a 	add	x10, x10, x11
  402164:	8b0b0000 	add	x0, x0, x11
  402168:	eb03011f 	cmp	x8, x3
  40216c:	54000520 	b.eq	402210 <_Z10initMatrixPfS_S_mmm+0xfc>  // b.none
  402170:	9e230107 	ucvtf	s7, x8
  402174:	f100209f 	cmp	x4, #0x8
  402178:	54000062 	b.cs	402184 <_Z10initMatrixPfS_S_mmm+0x70>  // b.hs, b.nlast
  40217c:	aa1f03ec 	mov	x12, xzr
  402180:	1400001c 	b	4021f0 <_Z10initMatrixPfS_S_mmm+0xdc>
  402184:	aa0903ec 	mov	x12, x9
  402188:	aa0a03ed 	mov	x13, x10
  40218c:	4ea41c90 	mov	v16.16b, v4.16b
  402190:	4ea21c51 	mov	v17.16b, v2.16b
  402194:	6e61da12 	ucvtf	v18.2d, v16.2d
  402198:	6e61da33 	ucvtf	v19.2d, v17.2d
  40219c:	4ee58614 	add	v20.2d, v16.2d, v5.2d
  4021a0:	f100218c 	subs	x12, x12, #0x8
  4021a4:	4ee68610 	add	v16.2d, v16.2d, v6.2d
  4021a8:	0e616a52 	fcvtn	v18.2s, v18.2d
  4021ac:	4e616a72 	fcvtn2	v18.4s, v19.2d
  4021b0:	6e61da93 	ucvtf	v19.2d, v20.2d
  4021b4:	4ee58634 	add	v20.2d, v17.2d, v5.2d
  4021b8:	4ee68631 	add	v17.2d, v17.2d, v6.2d
  4021bc:	6e61da94 	ucvtf	v20.2d, v20.2d
  4021c0:	0e616a73 	fcvtn	v19.2s, v19.2d
  4021c4:	4f879252 	fmul	v18.4s, v18.4s, v7.s[0]
  4021c8:	4e616a93 	fcvtn2	v19.4s, v20.2d
  4021cc:	6e23fe52 	fdiv	v18.4s, v18.4s, v3.4s
  4021d0:	4f879273 	fmul	v19.4s, v19.4s, v7.s[0]
  4021d4:	6e23fe73 	fdiv	v19.4s, v19.4s, v3.4s
  4021d8:	ad3fcdb2 	stp	q18, q19, [x13, #-16]
  4021dc:	910081ad 	add	x13, x13, #0x20
  4021e0:	54fffda1 	b.ne	402194 <_Z10initMatrixPfS_S_mmm+0x80>  // b.any
  4021e4:	aa0903ec 	mov	x12, x9
  4021e8:	eb04013f 	cmp	x9, x4
  4021ec:	54fffb80 	b.eq	40215c <_Z10initMatrixPfS_S_mmm+0x48>  // b.none
  4021f0:	9e230190 	ucvtf	s16, x12
  4021f4:	1e3008f0 	fmul	s16, s7, s16
  4021f8:	1e211a10 	fdiv	s16, s16, s1
  4021fc:	bc2c7810 	str	s16, [x0, x12, lsl #2]
  402200:	9100058c 	add	x12, x12, #0x1
  402204:	eb0c009f 	cmp	x4, x12
  402208:	54ffff41 	b.ne	4021f0 <_Z10initMatrixPfS_S_mmm+0xdc>  // b.any
  40220c:	17ffffd4 	b	40215c <_Z10initMatrixPfS_S_mmm+0x48>
  402210:	b4000844 	cbz	x4, 402318 <_Z10initMatrixPfS_S_mmm+0x204>
  402214:	b4000825 	cbz	x5, 402318 <_Z10initMatrixPfS_S_mmm+0x204>
  402218:	f000000c 	adrp	x12, 405000 <_ZN9__gnu_cxx12__to_xstringINSt7__cxx1112basic_stringIcSt11char_traitsIcESaIcEEEcEET_PFiPT0_mPKS8_St9__va_listEmSB_z+0x10c>
  40221c:	f000000d 	adrp	x13, 405000 <_ZN9__gnu_cxx12__to_xstringINSt7__cxx1112basic_stringIcSt11char_traitsIcESaIcEEEcEET_PFiPT0_mPKS8_St9__va_listEmSB_z+0x10c>
  402220:	5280010e 	mov	w14, #0x8                   	// #8
  402224:	aa1f03e8 	mov	x8, xzr
  402228:	4f03f603 	fmov	v3.4s, #1.000000000000000000e+00
  40222c:	927df0a9 	and	x9, x5, #0xfffffffffffffff8
  402230:	3dc3e182 	ldr	q2, [x12, #3968]
  402234:	5280008c 	mov	w12, #0x4                   	// #4
  402238:	9100402a 	add	x10, x1, #0x10
  40223c:	d37ef4ab 	lsl	x11, x5, #2
  402240:	1e2e1004 	fmov	s4, #1.000000000000000000e+00
  402244:	3dc3e5a5 	ldr	q5, [x13, #3984]
  402248:	4e040401 	dup	v1.4s, v0.s[0]
  40224c:	4e080d86 	dup	v6.2d, x12
  402250:	4e080dc7 	dup	v7.2d, x14
  402254:	14000006 	b	40226c <_Z10initMatrixPfS_S_mmm+0x158>
  402258:	91000508 	add	x8, x8, #0x1
  40225c:	8b0b014a 	add	x10, x10, x11
  402260:	8b0b0021 	add	x1, x1, x11
  402264:	eb04011f 	cmp	x8, x4
  402268:	54000580 	b.eq	402318 <_Z10initMatrixPfS_S_mmm+0x204>  // b.none
  40226c:	9e230110 	ucvtf	s16, x8
  402270:	f10020bf 	cmp	x5, #0x8
  402274:	54000062 	b.cs	402280 <_Z10initMatrixPfS_S_mmm+0x16c>  // b.hs, b.nlast
  402278:	aa1f03ec 	mov	x12, xzr
  40227c:	1400001f 	b	4022f8 <_Z10initMatrixPfS_S_mmm+0x1e4>
  402280:	aa0903ec 	mov	x12, x9
  402284:	aa0a03ed 	mov	x13, x10
  402288:	4e040613 	dup	v19.4s, v16.s[0]
  40228c:	4ea51cb1 	mov	v17.16b, v5.16b
  402290:	4ea21c52 	mov	v18.16b, v2.16b
  402294:	6e61da34 	ucvtf	v20.2d, v17.2d
  402298:	6e61da55 	ucvtf	v21.2d, v18.2d
  40229c:	4ee68636 	add	v22.2d, v17.2d, v6.2d
  4022a0:	f100218c 	subs	x12, x12, #0x8
  4022a4:	4ee68657 	add	v23.2d, v18.2d, v6.2d
  4022a8:	6e61dad6 	ucvtf	v22.2d, v22.2d
  4022ac:	0e616a94 	fcvtn	v20.2s, v20.2d
  4022b0:	4ee78652 	add	v18.2d, v18.2d, v7.2d
  4022b4:	4ee78631 	add	v17.2d, v17.2d, v7.2d
  4022b8:	0e616ad6 	fcvtn	v22.2s, v22.2d
  4022bc:	4e616ab4 	fcvtn2	v20.4s, v21.2d
  4022c0:	4ea31c75 	mov	v21.16b, v3.16b
  4022c4:	4e33ce95 	fmla	v21.4s, v20.4s, v19.4s
  4022c8:	6e61daf4 	ucvtf	v20.2d, v23.2d
  4022cc:	4e616a96 	fcvtn2	v22.4s, v20.2d
  4022d0:	6e21feb5 	fdiv	v21.4s, v21.4s, v1.4s
  4022d4:	4ea31c74 	mov	v20.16b, v3.16b
  4022d8:	4e33ced4 	fmla	v20.4s, v22.4s, v19.4s
  4022dc:	6e21fe94 	fdiv	v20.4s, v20.4s, v1.4s
  4022e0:	ad3fd1b5 	stp	q21, q20, [x13, #-16]
  4022e4:	910081ad 	add	x13, x13, #0x20
  4022e8:	54fffd61 	b.ne	402294 <_Z10initMatrixPfS_S_mmm+0x180>  // b.any
  4022ec:	aa0903ec 	mov	x12, x9
  4022f0:	eb05013f 	cmp	x9, x5
  4022f4:	54fffb20 	b.eq	402258 <_Z10initMatrixPfS_S_mmm+0x144>  // b.none
  4022f8:	9e230191 	ucvtf	s17, x12
  4022fc:	1f111211 	fmadd	s17, s16, s17, s4
  402300:	1e201a31 	fdiv	s17, s17, s0
  402304:	bc2c7831 	str	s17, [x1, x12, lsl #2]
  402308:	9100058c 	add	x12, x12, #0x1
  40230c:	eb0c00bf 	cmp	x5, x12
  402310:	54ffff41 	b.ne	4022f8 <_Z10initMatrixPfS_S_mmm+0x1e4>  // b.any
  402314:	17ffffd1 	b	402258 <_Z10initMatrixPfS_S_mmm+0x144>
  402318:	b4000823 	cbz	x3, 40241c <_Z10initMatrixPfS_S_mmm+0x308>
  40231c:	b4000805 	cbz	x5, 40241c <_Z10initMatrixPfS_S_mmm+0x308>
  402320:	f000000c 	adrp	x12, 405000 <_ZN9__gnu_cxx12__to_xstringINSt7__cxx1112basic_stringIcSt11char_traitsIcESaIcEEEcEET_PFiPT0_mPKS8_St9__va_listEmSB_z+0x10c>
  402324:	f000000d 	adrp	x13, 405000 <_ZN9__gnu_cxx12__to_xstringINSt7__cxx1112basic_stringIcSt11char_traitsIcESaIcEEEcEET_PFiPT0_mPKS8_St9__va_listEmSB_z+0x10c>
  402328:	5280008e 	mov	w14, #0x4                   	// #4
  40232c:	5280010f 	mov	w15, #0x8                   	// #8
  402330:	aa1f03e8 	mov	x8, xzr
  402334:	927df0a9 	and	x9, x5, #0xfffffffffffffff8
  402338:	9100404a 	add	x10, x2, #0x10
  40233c:	d37ef4ab 	lsl	x11, x5, #2
  402340:	3dc3e182 	ldr	q2, [x12, #3968]
  402344:	1e201003 	fmov	s3, #2.000000000000000000e+00
  402348:	3dc3e5a4 	ldr	q4, [x13, #3984]
  40234c:	4e040401 	dup	v1.4s, v0.s[0]
  402350:	4e080dc5 	dup	v5.2d, x14
  402354:	4e080de6 	dup	v6.2d, x15
  402358:	14000006 	b	402370 <_Z10initMatrixPfS_S_mmm+0x25c>
  40235c:	91000508 	add	x8, x8, #0x1
  402360:	8b0b014a 	add	x10, x10, x11
  402364:	8b0b0042 	add	x2, x2, x11
  402368:	eb03011f 	cmp	x8, x3
  40236c:	54000580 	b.eq	40241c <_Z10initMatrixPfS_S_mmm+0x308>  // b.none
  402370:	9e230107 	ucvtf	s7, x8
  402374:	f10020bf 	cmp	x5, #0x8
  402378:	54000062 	b.cs	402384 <_Z10initMatrixPfS_S_mmm+0x270>  // b.hs, b.nlast
  40237c:	aa1f03ec 	mov	x12, xzr
  402380:	1400001f 	b	4023fc <_Z10initMatrixPfS_S_mmm+0x2e8>
  402384:	aa0903ec 	mov	x12, x9
  402388:	aa0a03ed 	mov	x13, x10
  40238c:	4e0404f2 	dup	v18.4s, v7.s[0]
  402390:	4ea41c90 	mov	v16.16b, v4.16b
  402394:	4ea21c51 	mov	v17.16b, v2.16b
  402398:	6e61da13 	ucvtf	v19.2d, v16.2d
  40239c:	6e61da34 	ucvtf	v20.2d, v17.2d
  4023a0:	4ee58615 	add	v21.2d, v16.2d, v5.2d
  4023a4:	f100218c 	subs	x12, x12, #0x8
  4023a8:	4f026416 	movi	v22.4s, #0x40, lsl #24
  4023ac:	4ee68610 	add	v16.2d, v16.2d, v6.2d
  4023b0:	0e616a73 	fcvtn	v19.2s, v19.2d
  4023b4:	4e616a93 	fcvtn2	v19.4s, v20.2d
  4023b8:	6e61dab4 	ucvtf	v20.2d, v21.2d
  4023bc:	4ee58635 	add	v21.2d, v17.2d, v5.2d
  4023c0:	4ee68631 	add	v17.2d, v17.2d, v6.2d
  4023c4:	4e32ce76 	fmla	v22.4s, v19.4s, v18.4s
  4023c8:	6e61dab3 	ucvtf	v19.2d, v21.2d
  4023cc:	0e616a94 	fcvtn	v20.2s, v20.2d
  4023d0:	6e21fed5 	fdiv	v21.4s, v22.4s, v1.4s
  4023d4:	4f026416 	movi	v22.4s, #0x40, lsl #24
  4023d8:	4e616a74 	fcvtn2	v20.4s, v19.2d
  4023dc:	4e32ce96 	fmla	v22.4s, v20.4s, v18.4s
  4023e0:	6e21fed3 	fdiv	v19.4s, v22.4s, v1.4s
  4023e4:	ad3fcdb5 	stp	q21, q19, [x13, #-16]
  4023e8:	910081ad 	add	x13, x13, #0x20
  4023ec:	54fffd61 	b.ne	402398 <_Z10initMatrixPfS_S_mmm+0x284>  // b.any
  4023f0:	aa0903ec 	mov	x12, x9
  4023f4:	eb05013f 	cmp	x9, x5
  4023f8:	54fffb20 	b.eq	40235c <_Z10initMatrixPfS_S_mmm+0x248>  // b.none
  4023fc:	9e230190 	ucvtf	s16, x12
  402400:	1f100cf0 	fmadd	s16, s7, s16, s3
  402404:	1e201a10 	fdiv	s16, s16, s0
  402408:	bc2c7850 	str	s16, [x2, x12, lsl #2]
  40240c:	9100058c 	add	x12, x12, #0x1
  402410:	eb0c00bf 	cmp	x5, x12
  402414:	54ffff41 	b.ne	4023fc <_Z10initMatrixPfS_S_mmm+0x2e8>  // b.any
  402418:	17ffffd1 	b	40235c <_Z10initMatrixPfS_S_mmm+0x248>
  40241c:	d65f03c0 	ret

0000000000402420 <_Z11naiveMatmulPfS_S_mmm>:
  402420:	b40003a3 	cbz	x3, 402494 <_Z11naiveMatmulPfS_S_mmm+0x74>
  402424:	b4000384 	cbz	x4, 402494 <_Z11naiveMatmulPfS_S_mmm+0x74>
  402428:	b4000365 	cbz	x5, 402494 <_Z11naiveMatmulPfS_S_mmm+0x74>
  40242c:	aa1f03e8 	mov	x8, xzr
  402430:	d37ef4a9 	lsl	x9, x5, #2
  402434:	d37ef48a 	lsl	x10, x4, #2
  402438:	9b047d0c 	mul	x12, x8, x4
  40243c:	aa1f03eb 	mov	x11, xzr
  402440:	aa0203ed 	mov	x13, x2
  402444:	8b0c016e 	add	x14, x11, x12
  402448:	aa0503ef 	mov	x15, x5
  40244c:	aa0d03f0 	mov	x16, x13
  402450:	aa0103f1 	mov	x17, x1
  402454:	bc6e7800 	ldr	s0, [x0, x14, lsl #2]
  402458:	bc404621 	ldr	s1, [x17], #4
  40245c:	bd400202 	ldr	s2, [x16]
  402460:	8b0a0210 	add	x16, x16, x10
  402464:	f10005ef 	subs	x15, x15, #0x1
  402468:	1f020020 	fmadd	s0, s1, s2, s0
  40246c:	bc2e7800 	str	s0, [x0, x14, lsl #2]
  402470:	54ffff41 	b.ne	402458 <_Z11naiveMatmulPfS_S_mmm+0x38>  // b.any
  402474:	9100056b 	add	x11, x11, #0x1
  402478:	910011ad 	add	x13, x13, #0x4
  40247c:	eb04017f 	cmp	x11, x4
  402480:	54fffe21 	b.ne	402444 <_Z11naiveMatmulPfS_S_mmm+0x24>  // b.any
  402484:	91000508 	add	x8, x8, #0x1
  402488:	8b090021 	add	x1, x1, x9
  40248c:	eb03011f 	cmp	x8, x3
  402490:	54fffd41 	b.ne	402438 <_Z11naiveMatmulPfS_S_mmm+0x18>  // b.any
  402494:	d65f03c0 	ret

0000000000402498 <_Z6verifyPfS_mm>:
  402498:	9b027c68 	mul	x8, x3, x2
  40249c:	b4000168 	cbz	x8, 4024c8 <_Z6verifyPfS_mm+0x30>
  4024a0:	bd400000 	ldr	s0, [x0]
  4024a4:	90000029 	adrp	x9, 406000 <_IO_stdin_used+0xa0>
  4024a8:	bd400021 	ldr	s1, [x1]
  4024ac:	7ea1d400 	fabd	s0, s0, s1
  4024b0:	1e22c001 	fcvt	d1, s0
  4024b4:	fd400920 	ldr	d0, [x9, #16]
  4024b8:	1e602020 	fcmp	d1, d0
  4024bc:	540000ad 	b.le	4024d0 <_Z6verifyPfS_mm+0x38>
  4024c0:	2a1f03e0 	mov	w0, wzr
  4024c4:	d65f03c0 	ret
  4024c8:	52800020 	mov	w0, #0x1                   	// #1
  4024cc:	d65f03c0 	ret
  4024d0:	5280002a 	mov	w10, #0x1                   	// #1
  4024d4:	aa0a03e9 	mov	x9, x10
  4024d8:	eb0a011f 	cmp	x8, x10
  4024dc:	54000120 	b.eq	402500 <_Z6verifyPfS_mm+0x68>  // b.none
  4024e0:	d37ef52a 	lsl	x10, x9, #2
  4024e4:	bc6a6801 	ldr	s1, [x0, x10]
  4024e8:	bc6a6822 	ldr	s2, [x1, x10]
  4024ec:	9100052a 	add	x10, x9, #0x1
  4024f0:	7ea2d421 	fabd	s1, s1, s2
  4024f4:	1e22c021 	fcvt	d1, s1
  4024f8:	1e602020 	fcmp	d1, d0
  4024fc:	54fffecd 	b.le	4024d4 <_Z6verifyPfS_mm+0x3c>
  402500:	eb08013f 	cmp	x9, x8
  402504:	1a9f37e0 	cset	w0, cs  // cs = hs, nlast
  402508:	d65f03c0 	ret

000000000040250c <main>:
  40250c:	d105c3ff 	sub	sp, sp, #0x170
  402510:	fd0083e8 	str	d8, [sp, #256]
  402514:	a9117bfd 	stp	x29, x30, [sp, #272]
  402518:	a9126ffc 	stp	x28, x27, [sp, #288]
  40251c:	a91367fa 	stp	x26, x25, [sp, #304]
  402520:	a9145ff8 	stp	x24, x23, [sp, #320]
  402524:	a91557f6 	stp	x22, x21, [sp, #336]
  402528:	a9164ff4 	stp	x20, x19, [sp, #352]
  40252c:	910443fd 	add	x29, sp, #0x110
  402530:	aa0103f3 	mov	x19, x1
  402534:	7100101f 	cmp	w0, #0x4
  402538:	54008ae1 	b.ne	403694 <main+0x1188>  // b.any
  40253c:	f9400660 	ldr	x0, [x19, #8]
  402540:	aa1f03e1 	mov	x1, xzr
  402544:	52800142 	mov	w2, #0xa                   	// #10
  402548:	97fffdee 	bl	401d00 <strtol@plt>
  40254c:	f9400a68 	ldr	x8, [x19, #16]
  402550:	f81f83a0 	stur	x0, [x29, #-8]
  402554:	aa1f03e1 	mov	x1, xzr
  402558:	52800142 	mov	w2, #0xa                   	// #10
  40255c:	aa0803e0 	mov	x0, x8
  402560:	97fffde8 	bl	401d00 <strtol@plt>
  402564:	f9400e68 	ldr	x8, [x19, #24]
  402568:	f81b83a0 	stur	x0, [x29, #-72]
  40256c:	aa1f03e1 	mov	x1, xzr
  402570:	52800142 	mov	w2, #0xa                   	// #10
  402574:	aa0803e0 	mov	x0, x8
  402578:	97fffde2 	bl	401d00 <strtol@plt>
  40257c:	6f00e400 	movi	v0.2d, #0x0
  402580:	f81b03a0 	stur	x0, [x29, #-80]
  402584:	ad3e03a0 	stp	q0, q0, [x29, #-64]
  402588:	d10183a0 	sub	x0, x29, #0x60
  40258c:	d10103a1 	sub	x1, x29, #0x40
  402590:	940005d1 	bl	403cd4 <_ZN2cl4sycl5queueC2ERKNS0_13property_listE>
  402594:	a97cd7b3 	ldp	x19, x21, [x29, #-56]
  402598:	b00000d6 	adrp	x22, 41b000 <GCC_except_table33+0xff8c>
  40259c:	f947ead6 	ldr	x22, [x22, #4048]
  4025a0:	eb15027f 	cmp	x19, x21
  4025a4:	54000ce1 	b.ne	402740 <main+0x234>  // b.any
  4025a8:	b4000073 	cbz	x19, 4025b4 <main+0xa8>
  4025ac:	aa1303e0 	mov	x0, x19
  4025b0:	97fffe00 	bl	401db0 <_ZdlPv@plt>
  4025b4:	f85f83a8 	ldur	x8, [x29, #-8]
  4025b8:	f000000a 	adrp	x10, 405000 <_ZN9__gnu_cxx12__to_xstringINSt7__cxx1112basic_stringIcSt11char_traitsIcESaIcEEEcEET_PFiPT0_mPKS8_St9__va_listEmSB_z+0x10c>
  4025bc:	6f00e400 	movi	v0.2d, #0x0
  4025c0:	f85b03a9 	ldur	x9, [x29, #-80]
  4025c4:	90000037 	adrp	x23, 406000 <_IO_stdin_used+0xa0>
  4025c8:	910746f7 	add	x23, x23, #0x1d1
  4025cc:	90000038 	adrp	x24, 406000 <_IO_stdin_used+0xa0>
  4025d0:	91077f18 	add	x24, x24, #0x1df
  4025d4:	9b087d20 	mul	x0, x9, x8
  4025d8:	ad3e03a0 	stp	q0, q0, [x29, #-64]
  4025dc:	3dc3e940 	ldr	q0, [x10, #4000]
  4025e0:	a908e3f7 	stp	x23, x24, [sp, #136]
  4025e4:	3c8983e0 	stur	q0, [sp, #152]
  4025e8:	d10183a1 	sub	x1, x29, #0x60
  4025ec:	d10103a2 	sub	x2, x29, #0x40
  4025f0:	910223e3 	add	x3, sp, #0x88
  4025f4:	9400064f 	bl	403f30 <_ZN2cl4sycl13malloc_sharedIfEEPT_mRKNS0_5queueERKNS0_13property_listENS0_6detail13code_locationE>
  4025f8:	a97ce7b4 	ldp	x20, x25, [x29, #-56]
  4025fc:	aa0003f3 	mov	x19, x0
  402600:	eb19029f 	cmp	x20, x25
  402604:	54000f21 	b.ne	4027e8 <main+0x2dc>  // b.any
  402608:	b4000074 	cbz	x20, 402614 <main+0x108>
  40260c:	aa1403e0 	mov	x0, x20
  402610:	97fffde8 	bl	401db0 <_ZdlPv@plt>
  402614:	a97b27a8 	ldp	x8, x9, [x29, #-80]
  402618:	f000000a 	adrp	x10, 405000 <_ZN9__gnu_cxx12__to_xstringINSt7__cxx1112basic_stringIcSt11char_traitsIcESaIcEEEcEET_PFiPT0_mPKS8_St9__va_listEmSB_z+0x10c>
  40261c:	f81983b3 	stur	x19, [x29, #-104]
  402620:	6f00e400 	movi	v0.2d, #0x0
  402624:	a90663f7 	stp	x23, x24, [sp, #96]
  402628:	3dc3ed41 	ldr	q1, [x10, #4016]
  40262c:	9b087d20 	mul	x0, x9, x8
  402630:	ad3e03a0 	stp	q0, q0, [x29, #-64]
  402634:	3d801fe1 	str	q1, [sp, #112]
  402638:	d10183a1 	sub	x1, x29, #0x60
  40263c:	d10103a2 	sub	x2, x29, #0x40
  402640:	910183e3 	add	x3, sp, #0x60
  402644:	9400063b 	bl	403f30 <_ZN2cl4sycl13malloc_sharedIfEEPT_mRKNS0_5queueERKNS0_13property_listENS0_6detail13code_locationE>
  402648:	a97ce7b4 	ldp	x20, x25, [x29, #-56]
  40264c:	aa0003f3 	mov	x19, x0
  402650:	eb19029f 	cmp	x20, x25
  402654:	540011e1 	b.ne	402890 <main+0x384>  // b.any
  402658:	b4000074 	cbz	x20, 402664 <main+0x158>
  40265c:	aa1403e0 	mov	x0, x20
  402660:	97fffdd4 	bl	401db0 <_ZdlPv@plt>
  402664:	f85f83a8 	ldur	x8, [x29, #-8]
  402668:	f000000a 	adrp	x10, 405000 <_ZN9__gnu_cxx12__to_xstringINSt7__cxx1112basic_stringIcSt11char_traitsIcESaIcEEEcEET_PFiPT0_mPKS8_St9__va_listEmSB_z+0x10c>
  40266c:	f85b83a9 	ldur	x9, [x29, #-72]
  402670:	f90043f3 	str	x19, [sp, #128]
  402674:	6f00e400 	movi	v0.2d, #0x0
  402678:	a903e3f7 	stp	x23, x24, [sp, #56]
  40267c:	3dc3f141 	ldr	q1, [x10, #4032]
  402680:	9b087d20 	mul	x0, x9, x8
  402684:	ad3e03a0 	stp	q0, q0, [x29, #-64]
  402688:	3c8483e1 	stur	q1, [sp, #72]
  40268c:	d10183a1 	sub	x1, x29, #0x60
  402690:	d10103a2 	sub	x2, x29, #0x40
  402694:	9100e3e3 	add	x3, sp, #0x38
  402698:	94000626 	bl	403f30 <_ZN2cl4sycl13malloc_sharedIfEEPT_mRKNS0_5queueERKNS0_13property_listENS0_6detail13code_locationE>
  40269c:	a97ce7b4 	ldp	x20, x25, [x29, #-56]
  4026a0:	aa0003f3 	mov	x19, x0
  4026a4:	eb19029f 	cmp	x20, x25
  4026a8:	54001481 	b.ne	402938 <main+0x42c>  // b.any
  4026ac:	b4000074 	cbz	x20, 4026b8 <main+0x1ac>
  4026b0:	aa1403e0 	mov	x0, x20
  4026b4:	97fffdbf 	bl	401db0 <_ZdlPv@plt>
  4026b8:	6f00e400 	movi	v0.2d, #0x0
  4026bc:	f85f83b4 	ldur	x20, [x29, #-8]
  4026c0:	f9002ff3 	str	x19, [sp, #88]
  4026c4:	f85b83b3 	ldur	x19, [x29, #-72]
  4026c8:	ad0083e0 	stp	q0, q0, [sp, #16]
  4026cc:	d10083a8 	sub	x8, x29, #0x20
  4026d0:	d10183a0 	sub	x0, x29, #0x60
  4026d4:	97fffdd7 	bl	401e30 <_ZNK2cl4sycl5queue11get_contextEv@plt>
  4026d8:	f0000008 	adrp	x8, 405000 <_ZN9__gnu_cxx12__to_xstringINSt7__cxx1112basic_stringIcSt11char_traitsIcESaIcEEEcEET_PFiPT0_mPKS8_St9__va_listEmSB_z+0x10c>
  4026dc:	9b137e89 	mul	x9, x20, x19
  4026e0:	a93c63b7 	stp	x23, x24, [x29, #-64]
  4026e4:	d37ef521 	lsl	x1, x9, #2
  4026e8:	3dc3f500 	ldr	q0, [x8, #4048]
  4026ec:	3c9d03a0 	stur	q0, [x29, #-48]
  4026f0:	d10083a2 	sub	x2, x29, #0x20
  4026f4:	910043e3 	add	x3, sp, #0x10
  4026f8:	d10103a4 	sub	x4, x29, #0x40
  4026fc:	52800080 	mov	w0, #0x4                   	// #4
  402700:	97fffd90 	bl	401d40 <_ZN2cl4sycl18aligned_alloc_hostEmmRKNS0_7contextERKNS0_13property_listENS0_6detail13code_locationE@plt>
  402704:	aa0003f3 	mov	x19, x0
  402708:	f85e83b4 	ldur	x20, [x29, #-24]
  40270c:	b40019f4 	cbz	x20, 402a48 <main+0x53c>
  402710:	91002288 	add	x8, x20, #0x8
  402714:	b4001796 	cbz	x22, 402a04 <main+0x4f8>
  402718:	885ffd09 	ldaxr	w9, [x8]
  40271c:	5100052a 	sub	w10, w9, #0x1
  402720:	880bfd0a 	stlxr	w11, w10, [x8]
  402724:	35ffffab 	cbnz	w11, 402718 <main+0x20c>
  402728:	7100053f 	cmp	w9, #0x1
  40272c:	54001760 	b.eq	402a18 <main+0x50c>  // b.none
  402730:	140000c6 	b	402a48 <main+0x53c>
  402734:	91004273 	add	x19, x19, #0x10
  402738:	eb15027f 	cmp	x19, x21
  40273c:	540014c0 	b.eq	4029d4 <main+0x4c8>  // b.none
  402740:	f9400674 	ldr	x20, [x19, #8]
  402744:	b4ffff94 	cbz	x20, 402734 <main+0x228>
  402748:	91002288 	add	x8, x20, #0x8
  40274c:	b4000116 	cbz	x22, 40276c <main+0x260>
  402750:	885ffd09 	ldaxr	w9, [x8]
  402754:	5100052a 	sub	w10, w9, #0x1
  402758:	880bfd0a 	stlxr	w11, w10, [x8]
  40275c:	35ffffab 	cbnz	w11, 402750 <main+0x244>
  402760:	7100053f 	cmp	w9, #0x1
  402764:	54fffe81 	b.ne	402734 <main+0x228>  // b.any
  402768:	14000006 	b	402780 <main+0x274>
  40276c:	b9400109 	ldr	w9, [x8]
  402770:	5100052a 	sub	w10, w9, #0x1
  402774:	b900010a 	str	w10, [x8]
  402778:	7100053f 	cmp	w9, #0x1
  40277c:	54fffdc1 	b.ne	402734 <main+0x228>  // b.any
  402780:	aa1403f7 	mov	x23, x20
  402784:	aa1403e0 	mov	x0, x20
  402788:	f840c6e8 	ldr	x8, [x23], #12
  40278c:	f9400908 	ldr	x8, [x8, #16]
  402790:	d63f0100 	blr	x8
  402794:	b4000116 	cbz	x22, 4027b4 <main+0x2a8>
  402798:	885ffee8 	ldaxr	w8, [x23]
  40279c:	51000509 	sub	w9, w8, #0x1
  4027a0:	880afee9 	stlxr	w10, w9, [x23]
  4027a4:	35ffffaa 	cbnz	w10, 402798 <main+0x28c>
  4027a8:	7100051f 	cmp	w8, #0x1
  4027ac:	54fffc41 	b.ne	402734 <main+0x228>  // b.any
  4027b0:	14000006 	b	4027c8 <main+0x2bc>
  4027b4:	b94002e8 	ldr	w8, [x23]
  4027b8:	51000509 	sub	w9, w8, #0x1
  4027bc:	b90002e9 	str	w9, [x23]
  4027c0:	7100051f 	cmp	w8, #0x1
  4027c4:	54fffb81 	b.ne	402734 <main+0x228>  // b.any
  4027c8:	f9400288 	ldr	x8, [x20]
  4027cc:	aa1403e0 	mov	x0, x20
  4027d0:	f9400d08 	ldr	x8, [x8, #24]
  4027d4:	d63f0100 	blr	x8
  4027d8:	17ffffd7 	b	402734 <main+0x228>
  4027dc:	91004294 	add	x20, x20, #0x10
  4027e0:	eb19029f 	cmp	x20, x25
  4027e4:	54000fe0 	b.eq	4029e0 <main+0x4d4>  // b.none
  4027e8:	f9400695 	ldr	x21, [x20, #8]
  4027ec:	b4ffff95 	cbz	x21, 4027dc <main+0x2d0>
  4027f0:	910022a8 	add	x8, x21, #0x8
  4027f4:	b4000116 	cbz	x22, 402814 <main+0x308>
  4027f8:	885ffd09 	ldaxr	w9, [x8]
  4027fc:	5100052a 	sub	w10, w9, #0x1
  402800:	880bfd0a 	stlxr	w11, w10, [x8]
  402804:	35ffffab 	cbnz	w11, 4027f8 <main+0x2ec>
  402808:	7100053f 	cmp	w9, #0x1
  40280c:	54fffe81 	b.ne	4027dc <main+0x2d0>  // b.any
  402810:	14000006 	b	402828 <main+0x31c>
  402814:	b9400109 	ldr	w9, [x8]
  402818:	5100052a 	sub	w10, w9, #0x1
  40281c:	b900010a 	str	w10, [x8]
  402820:	7100053f 	cmp	w9, #0x1
  402824:	54fffdc1 	b.ne	4027dc <main+0x2d0>  // b.any
  402828:	aa1503fa 	mov	x26, x21
  40282c:	aa1503e0 	mov	x0, x21
  402830:	f840c748 	ldr	x8, [x26], #12
  402834:	f9400908 	ldr	x8, [x8, #16]
  402838:	d63f0100 	blr	x8
  40283c:	b4000116 	cbz	x22, 40285c <main+0x350>
  402840:	885fff48 	ldaxr	w8, [x26]
  402844:	51000509 	sub	w9, w8, #0x1
  402848:	880aff49 	stlxr	w10, w9, [x26]
  40284c:	35ffffaa 	cbnz	w10, 402840 <main+0x334>
  402850:	7100051f 	cmp	w8, #0x1
  402854:	54fffc41 	b.ne	4027dc <main+0x2d0>  // b.any
  402858:	14000006 	b	402870 <main+0x364>
  40285c:	b9400348 	ldr	w8, [x26]
  402860:	51000509 	sub	w9, w8, #0x1
  402864:	b9000349 	str	w9, [x26]
  402868:	7100051f 	cmp	w8, #0x1
  40286c:	54fffb81 	b.ne	4027dc <main+0x2d0>  // b.any
  402870:	f94002a8 	ldr	x8, [x21]
  402874:	aa1503e0 	mov	x0, x21
  402878:	f9400d08 	ldr	x8, [x8, #24]
  40287c:	d63f0100 	blr	x8
  402880:	17ffffd7 	b	4027dc <main+0x2d0>
  402884:	91004294 	add	x20, x20, #0x10
  402888:	eb19029f 	cmp	x20, x25
  40288c:	54000b00 	b.eq	4029ec <main+0x4e0>  // b.none
  402890:	f9400695 	ldr	x21, [x20, #8]
  402894:	b4ffff95 	cbz	x21, 402884 <main+0x378>
  402898:	910022a8 	add	x8, x21, #0x8
  40289c:	b4000116 	cbz	x22, 4028bc <main+0x3b0>
  4028a0:	885ffd09 	ldaxr	w9, [x8]
  4028a4:	5100052a 	sub	w10, w9, #0x1
  4028a8:	880bfd0a 	stlxr	w11, w10, [x8]
  4028ac:	35ffffab 	cbnz	w11, 4028a0 <main+0x394>
  4028b0:	7100053f 	cmp	w9, #0x1
  4028b4:	54fffe81 	b.ne	402884 <main+0x378>  // b.any
  4028b8:	14000006 	b	4028d0 <main+0x3c4>
  4028bc:	b9400109 	ldr	w9, [x8]
  4028c0:	5100052a 	sub	w10, w9, #0x1
  4028c4:	b900010a 	str	w10, [x8]
  4028c8:	7100053f 	cmp	w9, #0x1
  4028cc:	54fffdc1 	b.ne	402884 <main+0x378>  // b.any
  4028d0:	aa1503fa 	mov	x26, x21
  4028d4:	aa1503e0 	mov	x0, x21
  4028d8:	f840c748 	ldr	x8, [x26], #12
  4028dc:	f9400908 	ldr	x8, [x8, #16]
  4028e0:	d63f0100 	blr	x8
  4028e4:	b4000116 	cbz	x22, 402904 <main+0x3f8>
  4028e8:	885fff48 	ldaxr	w8, [x26]
  4028ec:	51000509 	sub	w9, w8, #0x1
  4028f0:	880aff49 	stlxr	w10, w9, [x26]
  4028f4:	35ffffaa 	cbnz	w10, 4028e8 <main+0x3dc>
  4028f8:	7100051f 	cmp	w8, #0x1
  4028fc:	54fffc41 	b.ne	402884 <main+0x378>  // b.any
  402900:	14000006 	b	402918 <main+0x40c>
  402904:	b9400348 	ldr	w8, [x26]
  402908:	51000509 	sub	w9, w8, #0x1
  40290c:	b9000349 	str	w9, [x26]
  402910:	7100051f 	cmp	w8, #0x1
  402914:	54fffb81 	b.ne	402884 <main+0x378>  // b.any
  402918:	f94002a8 	ldr	x8, [x21]
  40291c:	aa1503e0 	mov	x0, x21
  402920:	f9400d08 	ldr	x8, [x8, #24]
  402924:	d63f0100 	blr	x8
  402928:	17ffffd7 	b	402884 <main+0x378>
  40292c:	91004294 	add	x20, x20, #0x10
  402930:	eb19029f 	cmp	x20, x25
  402934:	54000620 	b.eq	4029f8 <main+0x4ec>  // b.none
  402938:	f9400695 	ldr	x21, [x20, #8]
  40293c:	b4ffff95 	cbz	x21, 40292c <main+0x420>
  402940:	910022a8 	add	x8, x21, #0x8
  402944:	b4000116 	cbz	x22, 402964 <main+0x458>
  402948:	885ffd09 	ldaxr	w9, [x8]
  40294c:	5100052a 	sub	w10, w9, #0x1
  402950:	880bfd0a 	stlxr	w11, w10, [x8]
  402954:	35ffffab 	cbnz	w11, 402948 <main+0x43c>
  402958:	7100053f 	cmp	w9, #0x1
  40295c:	54fffe81 	b.ne	40292c <main+0x420>  // b.any
  402960:	14000006 	b	402978 <main+0x46c>
  402964:	b9400109 	ldr	w9, [x8]
  402968:	5100052a 	sub	w10, w9, #0x1
  40296c:	b900010a 	str	w10, [x8]
  402970:	7100053f 	cmp	w9, #0x1
  402974:	54fffdc1 	b.ne	40292c <main+0x420>  // b.any
  402978:	aa1503fa 	mov	x26, x21
  40297c:	aa1503e0 	mov	x0, x21
  402980:	f840c748 	ldr	x8, [x26], #12
  402984:	f9400908 	ldr	x8, [x8, #16]
  402988:	d63f0100 	blr	x8
  40298c:	b4000116 	cbz	x22, 4029ac <main+0x4a0>
  402990:	885fff48 	ldaxr	w8, [x26]
  402994:	51000509 	sub	w9, w8, #0x1
  402998:	880aff49 	stlxr	w10, w9, [x26]
  40299c:	35ffffaa 	cbnz	w10, 402990 <main+0x484>
  4029a0:	7100051f 	cmp	w8, #0x1
  4029a4:	54fffc41 	b.ne	40292c <main+0x420>  // b.any
  4029a8:	14000006 	b	4029c0 <main+0x4b4>
  4029ac:	b9400348 	ldr	w8, [x26]
  4029b0:	51000509 	sub	w9, w8, #0x1
  4029b4:	b9000349 	str	w9, [x26]
  4029b8:	7100051f 	cmp	w8, #0x1
  4029bc:	54fffb81 	b.ne	40292c <main+0x420>  // b.any
  4029c0:	f94002a8 	ldr	x8, [x21]
  4029c4:	aa1503e0 	mov	x0, x21
  4029c8:	f9400d08 	ldr	x8, [x8, #24]
  4029cc:	d63f0100 	blr	x8
  4029d0:	17ffffd7 	b	40292c <main+0x420>
  4029d4:	f85c83b3 	ldur	x19, [x29, #-56]
  4029d8:	b5ffdeb3 	cbnz	x19, 4025ac <main+0xa0>
  4029dc:	17fffef6 	b	4025b4 <main+0xa8>
  4029e0:	f85c83b4 	ldur	x20, [x29, #-56]
  4029e4:	b5ffe154 	cbnz	x20, 40260c <main+0x100>
  4029e8:	17ffff0b 	b	402614 <main+0x108>
  4029ec:	f85c83b4 	ldur	x20, [x29, #-56]
  4029f0:	b5ffe374 	cbnz	x20, 40265c <main+0x150>
  4029f4:	17ffff1c 	b	402664 <main+0x158>
  4029f8:	f85c83b4 	ldur	x20, [x29, #-56]
  4029fc:	b5ffe5b4 	cbnz	x20, 4026b0 <main+0x1a4>
  402a00:	17ffff2e 	b	4026b8 <main+0x1ac>
  402a04:	b9400109 	ldr	w9, [x8]
  402a08:	5100052a 	sub	w10, w9, #0x1
  402a0c:	b900010a 	str	w10, [x8]
  402a10:	7100053f 	cmp	w9, #0x1
  402a14:	540001a1 	b.ne	402a48 <main+0x53c>  // b.any
  402a18:	aa1403f5 	mov	x21, x20
  402a1c:	aa1403e0 	mov	x0, x20
  402a20:	f840c6a8 	ldr	x8, [x21], #12
  402a24:	f9400908 	ldr	x8, [x8, #16]
  402a28:	d63f0100 	blr	x8
  402a2c:	b4005856 	cbz	x22, 403534 <main+0x1028>
  402a30:	885ffea8 	ldaxr	w8, [x21]
  402a34:	51000509 	sub	w9, w8, #0x1
  402a38:	880afea9 	stlxr	w10, w9, [x21]
  402a3c:	35ffffaa 	cbnz	w10, 402a30 <main+0x524>
  402a40:	7100051f 	cmp	w8, #0x1
  402a44:	54005820 	b.eq	403548 <main+0x103c>  // b.none
  402a48:	a941e7f4 	ldp	x20, x25, [sp, #24]
  402a4c:	eb19029f 	cmp	x20, x25
  402a50:	54005921 	b.ne	403574 <main+0x1068>  // b.any
  402a54:	b4000074 	cbz	x20, 402a60 <main+0x554>
  402a58:	aa1403e0 	mov	x0, x20
  402a5c:	97fffcd5 	bl	401db0 <_ZdlPv@plt>
  402a60:	a97b27ab 	ldp	x11, x9, [x29, #-80]
  402a64:	f85f83a8 	ldur	x8, [x29, #-8]
  402a68:	f85983ac 	ldur	x12, [x29, #-104]
  402a6c:	f94043ea 	ldr	x10, [sp, #128]
  402a70:	9e230101 	ucvtf	s1, x8
  402a74:	9e230120 	ucvtf	s0, x9
  402a78:	f9402fed 	ldr	x13, [sp, #88]
  402a7c:	b40007c8 	cbz	x8, 402b74 <main+0x668>
  402a80:	b400104b 	cbz	x11, 402c88 <main+0x77c>
  402a84:	f0000012 	adrp	x18, 405000 <_ZN9__gnu_cxx12__to_xstringINSt7__cxx1112basic_stringIcSt11char_traitsIcESaIcEEEcEET_PFiPT0_mPKS8_St9__va_listEmSB_z+0x10c>
  402a88:	f0000000 	adrp	x0, 405000 <_ZN9__gnu_cxx12__to_xstringINSt7__cxx1112basic_stringIcSt11char_traitsIcESaIcEEEcEET_PFiPT0_mPKS8_St9__va_listEmSB_z+0x10c>
  402a8c:	52800081 	mov	w1, #0x4                   	// #4
  402a90:	52800102 	mov	w2, #0x8                   	// #8
  402a94:	aa1f03ee 	mov	x14, xzr
  402a98:	927df16f 	and	x15, x11, #0xfffffffffffffff8
  402a9c:	91004190 	add	x16, x12, #0x10
  402aa0:	d37ef571 	lsl	x17, x11, #2
  402aa4:	3dc3e243 	ldr	q3, [x18, #3968]
  402aa8:	aa0c03f2 	mov	x18, x12
  402aac:	3dc3e404 	ldr	q4, [x0, #3984]
  402ab0:	4e040422 	dup	v2.4s, v1.s[0]
  402ab4:	4e080c25 	dup	v5.2d, x1
  402ab8:	4e080c46 	dup	v6.2d, x2
  402abc:	14000006 	b	402ad4 <main+0x5c8>
  402ac0:	910005ce 	add	x14, x14, #0x1
  402ac4:	8b110210 	add	x16, x16, x17
  402ac8:	8b110252 	add	x18, x18, x17
  402acc:	eb0801df 	cmp	x14, x8
  402ad0:	54000520 	b.eq	402b74 <main+0x668>  // b.none
  402ad4:	9e2301c7 	ucvtf	s7, x14
  402ad8:	f100217f 	cmp	x11, #0x8
  402adc:	54000062 	b.cs	402ae8 <main+0x5dc>  // b.hs, b.nlast
  402ae0:	aa1f03e0 	mov	x0, xzr
  402ae4:	1400001c 	b	402b54 <main+0x648>
  402ae8:	aa0f03e0 	mov	x0, x15
  402aec:	aa1003e1 	mov	x1, x16
  402af0:	4ea41c90 	mov	v16.16b, v4.16b
  402af4:	4ea31c71 	mov	v17.16b, v3.16b
  402af8:	6e61da12 	ucvtf	v18.2d, v16.2d
  402afc:	6e61da33 	ucvtf	v19.2d, v17.2d
  402b00:	4ee58614 	add	v20.2d, v16.2d, v5.2d
  402b04:	f1002000 	subs	x0, x0, #0x8
  402b08:	4ee68610 	add	v16.2d, v16.2d, v6.2d
  402b0c:	0e616a52 	fcvtn	v18.2s, v18.2d
  402b10:	4e616a72 	fcvtn2	v18.4s, v19.2d
  402b14:	6e61da93 	ucvtf	v19.2d, v20.2d
  402b18:	4ee58634 	add	v20.2d, v17.2d, v5.2d
  402b1c:	4ee68631 	add	v17.2d, v17.2d, v6.2d
  402b20:	6e61da94 	ucvtf	v20.2d, v20.2d
  402b24:	0e616a73 	fcvtn	v19.2s, v19.2d
  402b28:	4f879252 	fmul	v18.4s, v18.4s, v7.s[0]
  402b2c:	4e616a93 	fcvtn2	v19.4s, v20.2d
  402b30:	6e22fe52 	fdiv	v18.4s, v18.4s, v2.4s
  402b34:	4f879273 	fmul	v19.4s, v19.4s, v7.s[0]
  402b38:	6e22fe73 	fdiv	v19.4s, v19.4s, v2.4s
  402b3c:	ad3fcc32 	stp	q18, q19, [x1, #-16]
  402b40:	91008021 	add	x1, x1, #0x20
  402b44:	54fffda1 	b.ne	402af8 <main+0x5ec>  // b.any
  402b48:	aa0f03e0 	mov	x0, x15
  402b4c:	eb0f017f 	cmp	x11, x15
  402b50:	54fffb80 	b.eq	402ac0 <main+0x5b4>  // b.none
  402b54:	9e230010 	ucvtf	s16, x0
  402b58:	1e3008f0 	fmul	s16, s7, s16
  402b5c:	1e211a10 	fdiv	s16, s16, s1
  402b60:	bc207a50 	str	s16, [x18, x0, lsl #2]
  402b64:	91000400 	add	x0, x0, #0x1
  402b68:	eb00017f 	cmp	x11, x0
  402b6c:	54ffff41 	b.ne	402b54 <main+0x648>  // b.any
  402b70:	17ffffd4 	b	402ac0 <main+0x5b4>
  402b74:	b400088b 	cbz	x11, 402c84 <main+0x778>
  402b78:	b4000869 	cbz	x9, 402c84 <main+0x778>
  402b7c:	f0000012 	adrp	x18, 405000 <_ZN9__gnu_cxx12__to_xstringINSt7__cxx1112basic_stringIcSt11char_traitsIcESaIcEEEcEET_PFiPT0_mPKS8_St9__va_listEmSB_z+0x10c>
  402b80:	f0000000 	adrp	x0, 405000 <_ZN9__gnu_cxx12__to_xstringINSt7__cxx1112basic_stringIcSt11char_traitsIcESaIcEEEcEET_PFiPT0_mPKS8_St9__va_listEmSB_z+0x10c>
  402b84:	9e230122 	ucvtf	s2, x9
  402b88:	aa1f03ee 	mov	x14, xzr
  402b8c:	4f03f606 	fmov	v6.4s, #1.000000000000000000e+00
  402b90:	927df12f 	and	x15, x9, #0xfffffffffffffff8
  402b94:	3dc3e244 	ldr	q4, [x18, #3968]
  402b98:	52800092 	mov	w18, #0x4                   	// #4
  402b9c:	3dc3e405 	ldr	q5, [x0, #3984]
  402ba0:	52800100 	mov	w0, #0x8                   	// #8
  402ba4:	91004150 	add	x16, x10, #0x10
  402ba8:	d37ef531 	lsl	x17, x9, #2
  402bac:	1e2e1003 	fmov	s3, #1.000000000000000000e+00
  402bb0:	4e080e47 	dup	v7.2d, x18
  402bb4:	aa0a03f2 	mov	x18, x10
  402bb8:	4e080c10 	dup	v16.2d, x0
  402bbc:	4e040451 	dup	v17.4s, v2.s[0]
  402bc0:	14000006 	b	402bd8 <main+0x6cc>
  402bc4:	910005ce 	add	x14, x14, #0x1
  402bc8:	8b110210 	add	x16, x16, x17
  402bcc:	8b110252 	add	x18, x18, x17
  402bd0:	eb0b01df 	cmp	x14, x11
  402bd4:	54000580 	b.eq	402c84 <main+0x778>  // b.none
  402bd8:	9e2301d2 	ucvtf	s18, x14
  402bdc:	f100213f 	cmp	x9, #0x8
  402be0:	54000062 	b.cs	402bec <main+0x6e0>  // b.hs, b.nlast
  402be4:	aa1f03e0 	mov	x0, xzr
  402be8:	1400001f 	b	402c64 <main+0x758>
  402bec:	aa0f03e0 	mov	x0, x15
  402bf0:	aa1003e1 	mov	x1, x16
  402bf4:	4e040655 	dup	v21.4s, v18.s[0]
  402bf8:	4ea51cb3 	mov	v19.16b, v5.16b
  402bfc:	4ea41c94 	mov	v20.16b, v4.16b
  402c00:	6e61da76 	ucvtf	v22.2d, v19.2d
  402c04:	6e61da97 	ucvtf	v23.2d, v20.2d
  402c08:	4ee78678 	add	v24.2d, v19.2d, v7.2d
  402c0c:	f1002000 	subs	x0, x0, #0x8
  402c10:	4ee78699 	add	v25.2d, v20.2d, v7.2d
  402c14:	6e61db18 	ucvtf	v24.2d, v24.2d
  402c18:	0e616ad6 	fcvtn	v22.2s, v22.2d
  402c1c:	4ef08694 	add	v20.2d, v20.2d, v16.2d
  402c20:	4ef08673 	add	v19.2d, v19.2d, v16.2d
  402c24:	0e616b18 	fcvtn	v24.2s, v24.2d
  402c28:	4e616af6 	fcvtn2	v22.4s, v23.2d
  402c2c:	4ea61cd7 	mov	v23.16b, v6.16b
  402c30:	4e35ced7 	fmla	v23.4s, v22.4s, v21.4s
  402c34:	6e61db36 	ucvtf	v22.2d, v25.2d
  402c38:	4e616ad8 	fcvtn2	v24.4s, v22.2d
  402c3c:	6e31fef7 	fdiv	v23.4s, v23.4s, v17.4s
  402c40:	4ea61cd6 	mov	v22.16b, v6.16b
  402c44:	4e35cf16 	fmla	v22.4s, v24.4s, v21.4s
  402c48:	6e31fed6 	fdiv	v22.4s, v22.4s, v17.4s
  402c4c:	ad3fd837 	stp	q23, q22, [x1, #-16]
  402c50:	91008021 	add	x1, x1, #0x20
  402c54:	54fffd61 	b.ne	402c00 <main+0x6f4>  // b.any
  402c58:	aa0f03e0 	mov	x0, x15
  402c5c:	eb0f013f 	cmp	x9, x15
  402c60:	54fffb20 	b.eq	402bc4 <main+0x6b8>  // b.none
  402c64:	9e230013 	ucvtf	s19, x0
  402c68:	1f130e53 	fmadd	s19, s18, s19, s3
  402c6c:	1e221a73 	fdiv	s19, s19, s2
  402c70:	bc207a53 	str	s19, [x18, x0, lsl #2]
  402c74:	91000400 	add	x0, x0, #0x1
  402c78:	eb00013f 	cmp	x9, x0
  402c7c:	54ffff41 	b.ne	402c64 <main+0x758>  // b.any
  402c80:	17ffffd1 	b	402bc4 <main+0x6b8>
  402c84:	b4000fc8 	cbz	x8, 402e7c <main+0x970>
  402c88:	b4000829 	cbz	x9, 402d8c <main+0x880>
  402c8c:	f0000012 	adrp	x18, 405000 <_ZN9__gnu_cxx12__to_xstringINSt7__cxx1112basic_stringIcSt11char_traitsIcESaIcEEEcEET_PFiPT0_mPKS8_St9__va_listEmSB_z+0x10c>
  402c90:	f0000000 	adrp	x0, 405000 <_ZN9__gnu_cxx12__to_xstringINSt7__cxx1112basic_stringIcSt11char_traitsIcESaIcEEEcEET_PFiPT0_mPKS8_St9__va_listEmSB_z+0x10c>
  402c94:	52800081 	mov	w1, #0x4                   	// #4
  402c98:	52800102 	mov	w2, #0x8                   	// #8
  402c9c:	aa1f03ee 	mov	x14, xzr
  402ca0:	927df12f 	and	x15, x9, #0xfffffffffffffff8
  402ca4:	910041b0 	add	x16, x13, #0x10
  402ca8:	d37ef531 	lsl	x17, x9, #2
  402cac:	3dc3e243 	ldr	q3, [x18, #3968]
  402cb0:	1e201004 	fmov	s4, #2.000000000000000000e+00
  402cb4:	3dc3e405 	ldr	q5, [x0, #3984]
  402cb8:	4e040402 	dup	v2.4s, v0.s[0]
  402cbc:	4e080c26 	dup	v6.2d, x1
  402cc0:	4e080c47 	dup	v7.2d, x2
  402cc4:	14000006 	b	402cdc <main+0x7d0>
  402cc8:	910005ce 	add	x14, x14, #0x1
  402ccc:	8b110210 	add	x16, x16, x17
  402cd0:	8b1101ad 	add	x13, x13, x17
  402cd4:	eb0801df 	cmp	x14, x8
  402cd8:	54000580 	b.eq	402d88 <main+0x87c>  // b.none
  402cdc:	9e2301d0 	ucvtf	s16, x14
  402ce0:	f100213f 	cmp	x9, #0x8
  402ce4:	54000062 	b.cs	402cf0 <main+0x7e4>  // b.hs, b.nlast
  402ce8:	aa1f03f2 	mov	x18, xzr
  402cec:	1400001f 	b	402d68 <main+0x85c>
  402cf0:	aa0f03f2 	mov	x18, x15
  402cf4:	aa1003e0 	mov	x0, x16
  402cf8:	4e040613 	dup	v19.4s, v16.s[0]
  402cfc:	4ea51cb1 	mov	v17.16b, v5.16b
  402d00:	4ea31c72 	mov	v18.16b, v3.16b
  402d04:	6e61da34 	ucvtf	v20.2d, v17.2d
  402d08:	6e61da55 	ucvtf	v21.2d, v18.2d
  402d0c:	4ee68636 	add	v22.2d, v17.2d, v6.2d
  402d10:	f1002252 	subs	x18, x18, #0x8
  402d14:	4f026417 	movi	v23.4s, #0x40, lsl #24
  402d18:	4ee78631 	add	v17.2d, v17.2d, v7.2d
  402d1c:	0e616a94 	fcvtn	v20.2s, v20.2d
  402d20:	4e616ab4 	fcvtn2	v20.4s, v21.2d
  402d24:	6e61dad5 	ucvtf	v21.2d, v22.2d
  402d28:	4ee68656 	add	v22.2d, v18.2d, v6.2d
  402d2c:	4ee78652 	add	v18.2d, v18.2d, v7.2d
  402d30:	4e33ce97 	fmla	v23.4s, v20.4s, v19.4s
  402d34:	6e61dad4 	ucvtf	v20.2d, v22.2d
  402d38:	0e616ab5 	fcvtn	v21.2s, v21.2d
  402d3c:	6e22fef6 	fdiv	v22.4s, v23.4s, v2.4s
  402d40:	4f026417 	movi	v23.4s, #0x40, lsl #24
  402d44:	4e616a95 	fcvtn2	v21.4s, v20.2d
  402d48:	4e33ceb7 	fmla	v23.4s, v21.4s, v19.4s
  402d4c:	6e22fef4 	fdiv	v20.4s, v23.4s, v2.4s
  402d50:	ad3fd016 	stp	q22, q20, [x0, #-16]
  402d54:	91008000 	add	x0, x0, #0x20
  402d58:	54fffd61 	b.ne	402d04 <main+0x7f8>  // b.any
  402d5c:	aa0f03f2 	mov	x18, x15
  402d60:	eb0f013f 	cmp	x9, x15
  402d64:	54fffb20 	b.eq	402cc8 <main+0x7bc>  // b.none
  402d68:	9e230251 	ucvtf	s17, x18
  402d6c:	1f111211 	fmadd	s17, s16, s17, s4
  402d70:	1e201a31 	fdiv	s17, s17, s0
  402d74:	bc3279b1 	str	s17, [x13, x18, lsl #2]
  402d78:	91000652 	add	x18, x18, #0x1
  402d7c:	eb12013f 	cmp	x9, x18
  402d80:	54ffff41 	b.ne	402d68 <main+0x85c>  // b.any
  402d84:	17ffffd1 	b	402cc8 <main+0x7bc>
  402d88:	b40007a8 	cbz	x8, 402e7c <main+0x970>
  402d8c:	b400100b 	cbz	x11, 402f8c <main+0xa80>
  402d90:	f0000010 	adrp	x16, 405000 <_ZN9__gnu_cxx12__to_xstringINSt7__cxx1112basic_stringIcSt11char_traitsIcESaIcEEEcEET_PFiPT0_mPKS8_St9__va_listEmSB_z+0x10c>
  402d94:	f0000011 	adrp	x17, 405000 <_ZN9__gnu_cxx12__to_xstringINSt7__cxx1112basic_stringIcSt11char_traitsIcESaIcEEEcEET_PFiPT0_mPKS8_St9__va_listEmSB_z+0x10c>
  402d98:	52800092 	mov	w18, #0x4                   	// #4
  402d9c:	52800100 	mov	w0, #0x8                   	// #8
  402da0:	aa1f03ed 	mov	x13, xzr
  402da4:	927df16e 	and	x14, x11, #0xfffffffffffffff8
  402da8:	9100418f 	add	x15, x12, #0x10
  402dac:	3dc3e203 	ldr	q3, [x16, #3968]
  402db0:	d37ef570 	lsl	x16, x11, #2
  402db4:	3dc3e624 	ldr	q4, [x17, #3984]
  402db8:	4e040422 	dup	v2.4s, v1.s[0]
  402dbc:	4e080e45 	dup	v5.2d, x18
  402dc0:	4e080c06 	dup	v6.2d, x0
  402dc4:	14000006 	b	402ddc <main+0x8d0>
  402dc8:	910005ad 	add	x13, x13, #0x1
  402dcc:	8b1001ef 	add	x15, x15, x16
  402dd0:	8b10018c 	add	x12, x12, x16
  402dd4:	eb0801bf 	cmp	x13, x8
  402dd8:	54000520 	b.eq	402e7c <main+0x970>  // b.none
  402ddc:	9e2301a7 	ucvtf	s7, x13
  402de0:	f100217f 	cmp	x11, #0x8
  402de4:	54000062 	b.cs	402df0 <main+0x8e4>  // b.hs, b.nlast
  402de8:	aa1f03f1 	mov	x17, xzr
  402dec:	1400001c 	b	402e5c <main+0x950>
  402df0:	aa0e03f1 	mov	x17, x14
  402df4:	aa0f03f2 	mov	x18, x15
  402df8:	4ea41c90 	mov	v16.16b, v4.16b
  402dfc:	4ea31c71 	mov	v17.16b, v3.16b
  402e00:	6e61da12 	ucvtf	v18.2d, v16.2d
  402e04:	6e61da33 	ucvtf	v19.2d, v17.2d
  402e08:	4ee58614 	add	v20.2d, v16.2d, v5.2d
  402e0c:	f1002231 	subs	x17, x17, #0x8
  402e10:	4ee68610 	add	v16.2d, v16.2d, v6.2d
  402e14:	0e616a52 	fcvtn	v18.2s, v18.2d
  402e18:	4e616a72 	fcvtn2	v18.4s, v19.2d
  402e1c:	6e61da93 	ucvtf	v19.2d, v20.2d
  402e20:	4ee58634 	add	v20.2d, v17.2d, v5.2d
  402e24:	4ee68631 	add	v17.2d, v17.2d, v6.2d
  402e28:	6e61da94 	ucvtf	v20.2d, v20.2d
  402e2c:	0e616a73 	fcvtn	v19.2s, v19.2d
  402e30:	4f879252 	fmul	v18.4s, v18.4s, v7.s[0]
  402e34:	4e616a93 	fcvtn2	v19.4s, v20.2d
  402e38:	6e22fe52 	fdiv	v18.4s, v18.4s, v2.4s
  402e3c:	4f879273 	fmul	v19.4s, v19.4s, v7.s[0]
  402e40:	6e22fe73 	fdiv	v19.4s, v19.4s, v2.4s
  402e44:	ad3fce52 	stp	q18, q19, [x18, #-16]
  402e48:	91008252 	add	x18, x18, #0x20
  402e4c:	54fffda1 	b.ne	402e00 <main+0x8f4>  // b.any
  402e50:	aa0e03f1 	mov	x17, x14
  402e54:	eb0e017f 	cmp	x11, x14
  402e58:	54fffb80 	b.eq	402dc8 <main+0x8bc>  // b.none
  402e5c:	9e230230 	ucvtf	s16, x17
  402e60:	1e3008f0 	fmul	s16, s7, s16
  402e64:	1e211a10 	fdiv	s16, s16, s1
  402e68:	bc317990 	str	s16, [x12, x17, lsl #2]
  402e6c:	91000631 	add	x17, x17, #0x1
  402e70:	eb11017f 	cmp	x11, x17
  402e74:	54ffff41 	b.ne	402e5c <main+0x950>  // b.any
  402e78:	17ffffd4 	b	402dc8 <main+0x8bc>
  402e7c:	b400086b 	cbz	x11, 402f88 <main+0xa7c>
  402e80:	b4000849 	cbz	x9, 402f88 <main+0xa7c>
  402e84:	52800090 	mov	w16, #0x4                   	// #4
  402e88:	f000000e 	adrp	x14, 405000 <_ZN9__gnu_cxx12__to_xstringINSt7__cxx1112basic_stringIcSt11char_traitsIcESaIcEEEcEET_PFiPT0_mPKS8_St9__va_listEmSB_z+0x10c>
  402e8c:	f000000f 	adrp	x15, 405000 <_ZN9__gnu_cxx12__to_xstringINSt7__cxx1112basic_stringIcSt11char_traitsIcESaIcEEEcEET_PFiPT0_mPKS8_St9__va_listEmSB_z+0x10c>
  402e90:	9e230121 	ucvtf	s1, x9
  402e94:	4f03f605 	fmov	v5.4s, #1.000000000000000000e+00
  402e98:	aa1f03ec 	mov	x12, xzr
  402e9c:	4e080e04 	dup	v4.2d, x16
  402ea0:	52800110 	mov	w16, #0x8                   	// #8
  402ea4:	927df12d 	and	x13, x9, #0xfffffffffffffff8
  402ea8:	3dc3e1c2 	ldr	q2, [x14, #3968]
  402eac:	9100414e 	add	x14, x10, #0x10
  402eb0:	3dc3e5e3 	ldr	q3, [x15, #3984]
  402eb4:	d37ef52f 	lsl	x15, x9, #2
  402eb8:	1e2e1006 	fmov	s6, #1.000000000000000000e+00
  402ebc:	4e080e07 	dup	v7.2d, x16
  402ec0:	4e040430 	dup	v16.4s, v1.s[0]
  402ec4:	14000006 	b	402edc <main+0x9d0>
  402ec8:	9100058c 	add	x12, x12, #0x1
  402ecc:	8b0f01ce 	add	x14, x14, x15
  402ed0:	8b0f014a 	add	x10, x10, x15
  402ed4:	eb0b019f 	cmp	x12, x11
  402ed8:	54000580 	b.eq	402f88 <main+0xa7c>  // b.none
  402edc:	9e230191 	ucvtf	s17, x12
  402ee0:	f100213f 	cmp	x9, #0x8
  402ee4:	54000062 	b.cs	402ef0 <main+0x9e4>  // b.hs, b.nlast
  402ee8:	aa1f03f0 	mov	x16, xzr
  402eec:	1400001f 	b	402f68 <main+0xa5c>
  402ef0:	aa0d03f0 	mov	x16, x13
  402ef4:	aa0e03f1 	mov	x17, x14
  402ef8:	4e040634 	dup	v20.4s, v17.s[0]
  402efc:	4ea31c72 	mov	v18.16b, v3.16b
  402f00:	4ea21c53 	mov	v19.16b, v2.16b
  402f04:	6e61da55 	ucvtf	v21.2d, v18.2d
  402f08:	6e61da76 	ucvtf	v22.2d, v19.2d
  402f0c:	4ee48657 	add	v23.2d, v18.2d, v4.2d
  402f10:	f1002210 	subs	x16, x16, #0x8
  402f14:	4ee48678 	add	v24.2d, v19.2d, v4.2d
  402f18:	6e61daf7 	ucvtf	v23.2d, v23.2d
  402f1c:	0e616ab5 	fcvtn	v21.2s, v21.2d
  402f20:	4ee78673 	add	v19.2d, v19.2d, v7.2d
  402f24:	4ee78652 	add	v18.2d, v18.2d, v7.2d
  402f28:	0e616af7 	fcvtn	v23.2s, v23.2d
  402f2c:	4e616ad5 	fcvtn2	v21.4s, v22.2d
  402f30:	4ea51cb6 	mov	v22.16b, v5.16b
  402f34:	4e34ceb6 	fmla	v22.4s, v21.4s, v20.4s
  402f38:	6e61db15 	ucvtf	v21.2d, v24.2d
  402f3c:	4e616ab7 	fcvtn2	v23.4s, v21.2d
  402f40:	6e30fed6 	fdiv	v22.4s, v22.4s, v16.4s
  402f44:	4ea51cb5 	mov	v21.16b, v5.16b
  402f48:	4e34cef5 	fmla	v21.4s, v23.4s, v20.4s
  402f4c:	6e30feb5 	fdiv	v21.4s, v21.4s, v16.4s
  402f50:	ad3fd636 	stp	q22, q21, [x17, #-16]
  402f54:	91008231 	add	x17, x17, #0x20
  402f58:	54fffd61 	b.ne	402f04 <main+0x9f8>  // b.any
  402f5c:	aa0d03f0 	mov	x16, x13
  402f60:	eb0d013f 	cmp	x9, x13
  402f64:	54fffb20 	b.eq	402ec8 <main+0x9bc>  // b.none
  402f68:	9e230212 	ucvtf	s18, x16
  402f6c:	1f121a32 	fmadd	s18, s17, s18, s6
  402f70:	1e211a52 	fdiv	s18, s18, s1
  402f74:	bc307952 	str	s18, [x10, x16, lsl #2]
  402f78:	91000610 	add	x16, x16, #0x1
  402f7c:	eb10013f 	cmp	x9, x16
  402f80:	54ffff41 	b.ne	402f68 <main+0xa5c>  // b.any
  402f84:	17ffffd1 	b	402ec8 <main+0x9bc>
  402f88:	b4000848 	cbz	x8, 403090 <main+0xb84>
  402f8c:	b4000829 	cbz	x9, 403090 <main+0xb84>
  402f90:	f000000e 	adrp	x14, 405000 <_ZN9__gnu_cxx12__to_xstringINSt7__cxx1112basic_stringIcSt11char_traitsIcESaIcEEEcEET_PFiPT0_mPKS8_St9__va_listEmSB_z+0x10c>
  402f94:	f000000f 	adrp	x15, 405000 <_ZN9__gnu_cxx12__to_xstringINSt7__cxx1112basic_stringIcSt11char_traitsIcESaIcEEEcEET_PFiPT0_mPKS8_St9__va_listEmSB_z+0x10c>
  402f98:	52800090 	mov	w16, #0x4                   	// #4
  402f9c:	52800111 	mov	w17, #0x8                   	// #8
  402fa0:	aa1f03ea 	mov	x10, xzr
  402fa4:	927df12b 	and	x11, x9, #0xfffffffffffffff8
  402fa8:	9100426c 	add	x12, x19, #0x10
  402fac:	d37ef52d 	lsl	x13, x9, #2
  402fb0:	1e201002 	fmov	s2, #2.000000000000000000e+00
  402fb4:	3dc3e1c3 	ldr	q3, [x14, #3968]
  402fb8:	3dc3e5e4 	ldr	q4, [x15, #3984]
  402fbc:	aa1303ee 	mov	x14, x19
  402fc0:	4e040401 	dup	v1.4s, v0.s[0]
  402fc4:	4e080e05 	dup	v5.2d, x16
  402fc8:	4e080e26 	dup	v6.2d, x17
  402fcc:	14000006 	b	402fe4 <main+0xad8>
  402fd0:	9100054a 	add	x10, x10, #0x1
  402fd4:	8b0d018c 	add	x12, x12, x13
  402fd8:	8b0d01ce 	add	x14, x14, x13
  402fdc:	eb08015f 	cmp	x10, x8
  402fe0:	54000580 	b.eq	403090 <main+0xb84>  // b.none
  402fe4:	9e230147 	ucvtf	s7, x10
  402fe8:	f100213f 	cmp	x9, #0x8
  402fec:	54000062 	b.cs	402ff8 <main+0xaec>  // b.hs, b.nlast
  402ff0:	aa1f03ef 	mov	x15, xzr
  402ff4:	1400001f 	b	403070 <main+0xb64>
  402ff8:	aa0b03ef 	mov	x15, x11
  402ffc:	aa0c03f0 	mov	x16, x12
  403000:	4e0404f2 	dup	v18.4s, v7.s[0]
  403004:	4ea41c90 	mov	v16.16b, v4.16b
  403008:	4ea31c71 	mov	v17.16b, v3.16b
  40300c:	6e61da13 	ucvtf	v19.2d, v16.2d
  403010:	6e61da34 	ucvtf	v20.2d, v17.2d
  403014:	4ee58615 	add	v21.2d, v16.2d, v5.2d
  403018:	f10021ef 	subs	x15, x15, #0x8
  40301c:	4f026416 	movi	v22.4s, #0x40, lsl #24
  403020:	4ee68610 	add	v16.2d, v16.2d, v6.2d
  403024:	0e616a73 	fcvtn	v19.2s, v19.2d
  403028:	4e616a93 	fcvtn2	v19.4s, v20.2d
  40302c:	6e61dab4 	ucvtf	v20.2d, v21.2d
  403030:	4ee58635 	add	v21.2d, v17.2d, v5.2d
  403034:	4ee68631 	add	v17.2d, v17.2d, v6.2d
  403038:	4e32ce76 	fmla	v22.4s, v19.4s, v18.4s
  40303c:	6e61dab3 	ucvtf	v19.2d, v21.2d
  403040:	0e616a94 	fcvtn	v20.2s, v20.2d
  403044:	6e21fed5 	fdiv	v21.4s, v22.4s, v1.4s
  403048:	4f026416 	movi	v22.4s, #0x40, lsl #24
  40304c:	4e616a74 	fcvtn2	v20.4s, v19.2d
  403050:	4e32ce96 	fmla	v22.4s, v20.4s, v18.4s
  403054:	6e21fed3 	fdiv	v19.4s, v22.4s, v1.4s
  403058:	ad3fce15 	stp	q21, q19, [x16, #-16]
  40305c:	91008210 	add	x16, x16, #0x20
  403060:	54fffd61 	b.ne	40300c <main+0xb00>  // b.any
  403064:	aa0b03ef 	mov	x15, x11
  403068:	eb0b013f 	cmp	x9, x11
  40306c:	54fffb20 	b.eq	402fd0 <main+0xac4>  // b.none
  403070:	9e2301f0 	ucvtf	s16, x15
  403074:	1f1008f0 	fmadd	s16, s7, s16, s2
  403078:	1e201a10 	fdiv	s16, s16, s0
  40307c:	bc2f79d0 	str	s16, [x14, x15, lsl #2]
  403080:	910005ef 	add	x15, x15, #0x1
  403084:	eb0f013f 	cmp	x9, x15
  403088:	54ffff41 	b.ne	403070 <main+0xb64>  // b.any
  40308c:	17ffffd1 	b	402fd0 <main+0xac4>
  403090:	97fffae0 	bl	401c10 <_ZNSt6chrono3_V212system_clock3nowEv@plt>
  403094:	d0000008 	adrp	x8, 405000 <_ZN9__gnu_cxx12__to_xstringINSt7__cxx1112basic_stringIcSt11char_traitsIcESaIcEEEcEET_PFiPT0_mPKS8_St9__va_listEmSB_z+0x10c>
  403098:	aa0003f4 	mov	x20, x0
  40309c:	a90163f7 	stp	x23, x24, [sp, #16]
  4030a0:	3dc3f900 	ldr	q0, [x8, #4064]
  4030a4:	3d800be0 	str	q0, [sp, #32]
  4030a8:	52800600 	mov	w0, #0x30                  	// #48
  4030ac:	97fffb49 	bl	401dd0 <_Znwm@plt>
  4030b0:	d10023a8 	sub	x8, x29, #0x8
  4030b4:	d10123a9 	sub	x9, x29, #0x48
  4030b8:	d10143aa 	sub	x10, x29, #0x50
  4030bc:	910163eb 	add	x11, sp, #0x58
  4030c0:	f81c03a0 	stur	x0, [x29, #-64]
  4030c4:	a9002408 	stp	x8, x9, [x0]
  4030c8:	d101a3a8 	sub	x8, x29, #0x68
  4030cc:	910203e9 	add	x9, sp, #0x80
  4030d0:	a9012c0a 	stp	x10, x11, [x0, #16]
  4030d4:	a9022408 	stp	x8, x9, [x0, #32]
  4030d8:	90000008 	adrp	x8, 403000 <main+0xaf4>
  4030dc:	911d7112 	add	x18, x8, #0x75c
  4030e0:	90000008 	adrp	x8, 403000 <main+0xaf4>
  4030e4:	912c7108 	add	x8, x8, #0xb1c
  4030e8:	a93d4ba8 	stp	x8, x18, [x29, #-48]
  4030ec:	d10083a8 	sub	x8, x29, #0x20
  4030f0:	d10183a0 	sub	x0, x29, #0x60
  4030f4:	d10103a1 	sub	x1, x29, #0x40
  4030f8:	910043e2 	add	x2, sp, #0x10
  4030fc:	97fffb91 	bl	401f40 <_ZN2cl4sycl5queue11submit_implESt8functionIFvRNS0_7handlerEEERKNS0_6detail13code_locationE@plt>
  403100:	f85d03a8 	ldur	x8, [x29, #-48]
  403104:	b40000a8 	cbz	x8, 403118 <main+0xc0c>
  403108:	d10103a0 	sub	x0, x29, #0x40
  40310c:	d10103a1 	sub	x1, x29, #0x40
  403110:	52800062 	mov	w2, #0x3                   	// #3
  403114:	d63f0100 	blr	x8
  403118:	910003e8 	mov	x8, sp
  40311c:	d10183a0 	sub	x0, x29, #0x60
  403120:	d10083a1 	sub	x1, x29, #0x20
  403124:	97fffb03 	bl	401d30 <_ZN2cl4sycl5queue17discard_or_returnERKNS0_5eventE@plt>
  403128:	f85e83b5 	ldur	x21, [x29, #-24]
  40312c:	b40003f5 	cbz	x21, 4031a8 <main+0xc9c>
  403130:	910022a8 	add	x8, x21, #0x8
  403134:	b4000116 	cbz	x22, 403154 <main+0xc48>
  403138:	885ffd09 	ldaxr	w9, [x8]
  40313c:	5100052a 	sub	w10, w9, #0x1
  403140:	880bfd0a 	stlxr	w11, w10, [x8]
  403144:	35ffffab 	cbnz	w11, 403138 <main+0xc2c>
  403148:	7100053f 	cmp	w9, #0x1
  40314c:	540000e0 	b.eq	403168 <main+0xc5c>  // b.none
  403150:	14000016 	b	4031a8 <main+0xc9c>
  403154:	b9400109 	ldr	w9, [x8]
  403158:	5100052a 	sub	w10, w9, #0x1
  40315c:	b900010a 	str	w10, [x8]
  403160:	7100053f 	cmp	w9, #0x1
  403164:	54000221 	b.ne	4031a8 <main+0xc9c>  // b.any
  403168:	aa1503f9 	mov	x25, x21
  40316c:	aa1503e0 	mov	x0, x21
  403170:	f840c728 	ldr	x8, [x25], #12
  403174:	f9400908 	ldr	x8, [x8, #16]
  403178:	d63f0100 	blr	x8
  40317c:	b4002516 	cbz	x22, 40361c <main+0x1110>
  403180:	885fff28 	ldaxr	w8, [x25]
  403184:	51000509 	sub	w9, w8, #0x1
  403188:	880aff29 	stlxr	w10, w9, [x25]
  40318c:	35ffffaa 	cbnz	w10, 403180 <main+0xc74>
  403190:	7100051f 	cmp	w8, #0x1
  403194:	540000a1 	b.ne	4031a8 <main+0xc9c>  // b.any
  403198:	f94002a8 	ldr	x8, [x21]
  40319c:	aa1503e0 	mov	x0, x21
  4031a0:	f9400d08 	ldr	x8, [x8, #24]
  4031a4:	d63f0100 	blr	x8
  4031a8:	f94007f5 	ldr	x21, [sp, #8]
  4031ac:	b40003f5 	cbz	x21, 403228 <main+0xd1c>
  4031b0:	910022a8 	add	x8, x21, #0x8
  4031b4:	b4000116 	cbz	x22, 4031d4 <main+0xcc8>
  4031b8:	885ffd09 	ldaxr	w9, [x8]
  4031bc:	5100052a 	sub	w10, w9, #0x1
  4031c0:	880bfd0a 	stlxr	w11, w10, [x8]
  4031c4:	35ffffab 	cbnz	w11, 4031b8 <main+0xcac>
  4031c8:	7100053f 	cmp	w9, #0x1
  4031cc:	540000e0 	b.eq	4031e8 <main+0xcdc>  // b.none
  4031d0:	14000016 	b	403228 <main+0xd1c>
  4031d4:	b9400109 	ldr	w9, [x8]
  4031d8:	5100052a 	sub	w10, w9, #0x1
  4031dc:	b900010a 	str	w10, [x8]
  4031e0:	7100053f 	cmp	w9, #0x1
  4031e4:	54000221 	b.ne	403228 <main+0xd1c>  // b.any
  4031e8:	aa1503f9 	mov	x25, x21
  4031ec:	aa1503e0 	mov	x0, x21
  4031f0:	f840c728 	ldr	x8, [x25], #12
  4031f4:	f9400908 	ldr	x8, [x8, #16]
  4031f8:	d63f0100 	blr	x8
  4031fc:	b40021d6 	cbz	x22, 403634 <main+0x1128>
  403200:	885fff28 	ldaxr	w8, [x25]
  403204:	51000509 	sub	w9, w8, #0x1
  403208:	880aff29 	stlxr	w10, w9, [x25]
  40320c:	35ffffaa 	cbnz	w10, 403200 <main+0xcf4>
  403210:	7100051f 	cmp	w8, #0x1
  403214:	540000a1 	b.ne	403228 <main+0xd1c>  // b.any
  403218:	f94002a8 	ldr	x8, [x21]
  40321c:	aa1503e0 	mov	x0, x21
  403220:	f9400d08 	ldr	x8, [x8, #24]
  403224:	d63f0100 	blr	x8
  403228:	97fffa7a 	bl	401c10 <_ZNSt6chrono3_V212system_clock3nowEv@plt>
  40322c:	d0000008 	adrp	x8, 405000 <_ZN9__gnu_cxx12__to_xstringINSt7__cxx1112basic_stringIcSt11char_traitsIcESaIcEEEcEET_PFiPT0_mPKS8_St9__va_listEmSB_z+0x10c>
  403230:	aa0003f5 	mov	x21, x0
  403234:	a97b6bbb 	ldp	x27, x26, [x29, #-80]
  403238:	a93c63b7 	stp	x23, x24, [x29, #-64]
  40323c:	f85f83b9 	ldur	x25, [x29, #-8]
  403240:	3dc3fd00 	ldr	q0, [x8, #4080]
  403244:	3c9d03a0 	stur	q0, [x29, #-48]
  403248:	d10183a0 	sub	x0, x29, #0x60
  40324c:	d10103a1 	sub	x1, x29, #0x40
  403250:	97fffa78 	bl	401c30 <_ZN2cl4sycl5queue10wait_proxyERKNS0_6detail13code_locationE@plt>
  403254:	f85f83a8 	ldur	x8, [x29, #-8]
  403258:	f85b83a9 	ldur	x9, [x29, #-72]
  40325c:	b4000408 	cbz	x8, 4032dc <main+0xdd0>
  403260:	b40003e9 	cbz	x9, 4032dc <main+0xdd0>
  403264:	f85b03aa 	ldur	x10, [x29, #-80]
  403268:	b40003aa 	cbz	x10, 4032dc <main+0xdd0>
  40326c:	aa1f03eb 	mov	x11, xzr
  403270:	f85983ac 	ldur	x12, [x29, #-104]
  403274:	f94043ed 	ldr	x13, [sp, #128]
  403278:	d37ef52e 	lsl	x14, x9, #2
  40327c:	d37ef54f 	lsl	x15, x10, #2
  403280:	9b097d71 	mul	x17, x11, x9
  403284:	aa1f03f0 	mov	x16, xzr
  403288:	aa0d03f2 	mov	x18, x13
  40328c:	8b110200 	add	x0, x16, x17
  403290:	aa0c03e1 	mov	x1, x12
  403294:	aa1203e2 	mov	x2, x18
  403298:	aa0a03e3 	mov	x3, x10
  40329c:	bc607a60 	ldr	s0, [x19, x0, lsl #2]
  4032a0:	bc404421 	ldr	s1, [x1], #4
  4032a4:	bd400042 	ldr	s2, [x2]
  4032a8:	f1000463 	subs	x3, x3, #0x1
  4032ac:	8b0e0042 	add	x2, x2, x14
  4032b0:	1f020020 	fmadd	s0, s1, s2, s0
  4032b4:	bc207a60 	str	s0, [x19, x0, lsl #2]
  4032b8:	54ffff41 	b.ne	4032a0 <main+0xd94>  // b.any
  4032bc:	91000610 	add	x16, x16, #0x1
  4032c0:	91001252 	add	x18, x18, #0x4
  4032c4:	eb09021f 	cmp	x16, x9
  4032c8:	54fffe21 	b.ne	40328c <main+0xd80>  // b.any
  4032cc:	9100056b 	add	x11, x11, #0x1
  4032d0:	8b0f018c 	add	x12, x12, x15
  4032d4:	eb08017f 	cmp	x11, x8
  4032d8:	54fffd41 	b.ne	403280 <main+0xd74>  // b.any
  4032dc:	9b087d28 	mul	x8, x9, x8
  4032e0:	b4000308 	cbz	x8, 403340 <main+0xe34>
  4032e4:	f9402fe9 	ldr	x9, [sp, #88]
  4032e8:	f000000a 	adrp	x10, 406000 <_IO_stdin_used+0xa0>
  4032ec:	bd400261 	ldr	s1, [x19]
  4032f0:	bd400120 	ldr	s0, [x9]
  4032f4:	7ea1d400 	fabd	s0, s0, s1
  4032f8:	1e22c001 	fcvt	d1, s0
  4032fc:	fd400940 	ldr	d0, [x10, #16]
  403300:	1e602020 	fcmp	d1, d0
  403304:	54001b2c 	b.gt	403668 <main+0x115c>
  403308:	5280002b 	mov	w11, #0x1                   	// #1
  40330c:	aa0b03ea 	mov	x10, x11
  403310:	eb0b011f 	cmp	x8, x11
  403314:	54000120 	b.eq	403338 <main+0xe2c>  // b.none
  403318:	d37ef54b 	lsl	x11, x10, #2
  40331c:	bc6b6921 	ldr	s1, [x9, x11]
  403320:	bc6b6a62 	ldr	s2, [x19, x11]
  403324:	9100054b 	add	x11, x10, #0x1
  403328:	7ea2d421 	fabd	s1, s1, s2
  40332c:	1e22c021 	fcvt	d1, s1
  403330:	1e602020 	fcmp	d1, d0
  403334:	54fffecd 	b.le	40330c <main+0xe00>
  403338:	eb08015f 	cmp	x10, x8
  40333c:	54001963 	b.cc	403668 <main+0x115c>  // b.lo, b.ul, b.last
  403340:	b00000c0 	adrp	x0, 41c000 <_ZNSo3putEc@GLIBCXX_3.4>
  403344:	9107c000 	add	x0, x0, #0x1f0
  403348:	f0000001 	adrp	x1, 406000 <_IO_stdin_used+0xa0>
  40334c:	9107cc21 	add	x1, x1, #0x1f3
  403350:	52800142 	mov	w2, #0xa                   	// #10
  403354:	97fffaaf 	bl	401e10 <_ZSt16__ostream_insertIcSt11char_traitsIcEERSt13basic_ostreamIT_T0_ES6_PKS3_l@plt>
  403358:	cb1402a8 	sub	x8, x21, x20
  40335c:	d2d9aca9 	mov	x9, #0xcd6500000000        	// #225833675390976
  403360:	f2e839a9 	movk	x9, #0x41cd, lsl #48
  403364:	b00000c0 	adrp	x0, 41c000 <_ZNSo3putEc@GLIBCXX_3.4>
  403368:	9107c000 	add	x0, x0, #0x1f0
  40336c:	9e620100 	scvtf	d0, x8
  403370:	9e670121 	fmov	d1, x9
  403374:	1e611808 	fdiv	d8, d0, d1
  403378:	1e604100 	fmov	d0, d8
  40337c:	97fffadd 	bl	401ef0 <_ZNSo9_M_insertIdEERSoT_@plt>
  403380:	f0000001 	adrp	x1, 406000 <_IO_stdin_used+0xa0>
  403384:	9107f821 	add	x1, x1, #0x1fe
  403388:	52800042 	mov	w2, #0x2                   	// #2
  40338c:	aa0003f3 	mov	x19, x0
  403390:	97fffaa0 	bl	401e10 <_ZSt16__ostream_insertIcSt11char_traitsIcEERSt13basic_ostreamIT_T0_ES6_PKS3_l@plt>
  403394:	f9400268 	ldr	x8, [x19]
  403398:	f85e8108 	ldur	x8, [x8, #-24]
  40339c:	8b080268 	add	x8, x19, x8
  4033a0:	f9407914 	ldr	x20, [x8, #240]
  4033a4:	b4001614 	cbz	x20, 403664 <main+0x1158>
  4033a8:	3940e288 	ldrb	w8, [x20, #56]
  4033ac:	34000068 	cbz	w8, 4033b8 <main+0xeac>
  4033b0:	39410e81 	ldrb	w1, [x20, #67]
  4033b4:	14000009 	b	4033d8 <main+0xecc>
  4033b8:	aa1403e0 	mov	x0, x20
  4033bc:	97fffa99 	bl	401e20 <_ZNKSt5ctypeIcE13_M_widen_initEv@plt>
  4033c0:	f9400288 	ldr	x8, [x20]
  4033c4:	f9401908 	ldr	x8, [x8, #48]
  4033c8:	aa1403e0 	mov	x0, x20
  4033cc:	52800141 	mov	w1, #0xa                   	// #10
  4033d0:	d63f0100 	blr	x8
  4033d4:	2a0003e1 	mov	w1, w0
  4033d8:	aa1303e0 	mov	x0, x19
  4033dc:	97fffa09 	bl	401c00 <_ZNSo3putEc@plt>
  4033e0:	97fffa5c 	bl	401d50 <_ZNSo5flushEv@plt>
  4033e4:	b00000c0 	adrp	x0, 41c000 <_ZNSo3putEc@GLIBCXX_3.4>
  4033e8:	9107c000 	add	x0, x0, #0x1f0
  4033ec:	f0000001 	adrp	x1, 406000 <_IO_stdin_used+0xa0>
  4033f0:	91080421 	add	x1, x1, #0x201
  4033f4:	528001a2 	mov	w2, #0xd                   	// #13
  4033f8:	97fffa86 	bl	401e10 <_ZSt16__ostream_insertIcSt11char_traitsIcEERSt13basic_ostreamIT_T0_ES6_PKS3_l@plt>
  4033fc:	9b1a7f28 	mul	x8, x25, x26
  403400:	f0000009 	adrp	x9, 406000 <_IO_stdin_used+0xa0>
  403404:	b00000c0 	adrp	x0, 41c000 <_ZNSo3putEc@GLIBCXX_3.4>
  403408:	9107c000 	add	x0, x0, #0x1f0
  40340c:	9b1b7d08 	mul	x8, x8, x27
  403410:	fd400d21 	ldr	d1, [x9, #24]
  403414:	d37ff908 	lsl	x8, x8, #1
  403418:	9e630100 	ucvtf	d0, x8
  40341c:	1e610800 	fmul	d0, d0, d1
  403420:	1e681800 	fdiv	d0, d0, d8
  403424:	97fffab3 	bl	401ef0 <_ZNSo9_M_insertIdEERSoT_@plt>
  403428:	f0000001 	adrp	x1, 406000 <_IO_stdin_used+0xa0>
  40342c:	91083c21 	add	x1, x1, #0x20f
  403430:	528000e2 	mov	w2, #0x7                   	// #7
  403434:	aa0003f3 	mov	x19, x0
  403438:	97fffa76 	bl	401e10 <_ZSt16__ostream_insertIcSt11char_traitsIcEERSt13basic_ostreamIT_T0_ES6_PKS3_l@plt>
  40343c:	f9400268 	ldr	x8, [x19]
  403440:	f85e8108 	ldur	x8, [x8, #-24]
  403444:	8b080268 	add	x8, x19, x8
  403448:	f9407914 	ldr	x20, [x8, #240]
  40344c:	b40010d4 	cbz	x20, 403664 <main+0x1158>
  403450:	3940e288 	ldrb	w8, [x20, #56]
  403454:	34000068 	cbz	w8, 403460 <main+0xf54>
  403458:	39410e81 	ldrb	w1, [x20, #67]
  40345c:	14000009 	b	403480 <main+0xf74>
  403460:	aa1403e0 	mov	x0, x20
  403464:	97fffa6f 	bl	401e20 <_ZNKSt5ctypeIcE13_M_widen_initEv@plt>
  403468:	f9400288 	ldr	x8, [x20]
  40346c:	f9401908 	ldr	x8, [x8, #48]
  403470:	aa1403e0 	mov	x0, x20
  403474:	52800141 	mov	w1, #0xa                   	// #10
  403478:	d63f0100 	blr	x8
  40347c:	2a0003e1 	mov	w1, w0
  403480:	aa1303e0 	mov	x0, x19
  403484:	97fff9df 	bl	401c00 <_ZNSo3putEc@plt>
  403488:	97fffa32 	bl	401d50 <_ZNSo5flushEv@plt>
  40348c:	f85a83b3 	ldur	x19, [x29, #-88]
  403490:	b40003f3 	cbz	x19, 40350c <main+0x1000>
  403494:	91002268 	add	x8, x19, #0x8
  403498:	b4000116 	cbz	x22, 4034b8 <main+0xfac>
  40349c:	885ffd09 	ldaxr	w9, [x8]
  4034a0:	5100052a 	sub	w10, w9, #0x1
  4034a4:	880bfd0a 	stlxr	w11, w10, [x8]
  4034a8:	35ffffab 	cbnz	w11, 40349c <main+0xf90>
  4034ac:	7100053f 	cmp	w9, #0x1
  4034b0:	540000e0 	b.eq	4034cc <main+0xfc0>  // b.none
  4034b4:	14000016 	b	40350c <main+0x1000>
  4034b8:	b9400109 	ldr	w9, [x8]
  4034bc:	5100052a 	sub	w10, w9, #0x1
  4034c0:	b900010a 	str	w10, [x8]
  4034c4:	7100053f 	cmp	w9, #0x1
  4034c8:	54000221 	b.ne	40350c <main+0x1000>  // b.any
  4034cc:	aa1303f4 	mov	x20, x19
  4034d0:	aa1303e0 	mov	x0, x19
  4034d4:	f840c688 	ldr	x8, [x20], #12
  4034d8:	f9400908 	ldr	x8, [x8, #16]
  4034dc:	d63f0100 	blr	x8
  4034e0:	b4000b76 	cbz	x22, 40364c <main+0x1140>
  4034e4:	885ffe88 	ldaxr	w8, [x20]
  4034e8:	51000509 	sub	w9, w8, #0x1
  4034ec:	880afe89 	stlxr	w10, w9, [x20]
  4034f0:	35ffffaa 	cbnz	w10, 4034e4 <main+0xfd8>
  4034f4:	7100051f 	cmp	w8, #0x1
  4034f8:	540000a1 	b.ne	40350c <main+0x1000>  // b.any
  4034fc:	f9400268 	ldr	x8, [x19]
  403500:	aa1303e0 	mov	x0, x19
  403504:	f9400d08 	ldr	x8, [x8, #24]
  403508:	d63f0100 	blr	x8
  40350c:	2a1f03e0 	mov	w0, wzr
  403510:	a9564ff4 	ldp	x20, x19, [sp, #352]
  403514:	a95557f6 	ldp	x22, x21, [sp, #336]
  403518:	a9545ff8 	ldp	x24, x23, [sp, #320]
  40351c:	a95367fa 	ldp	x26, x25, [sp, #304]
  403520:	a9526ffc 	ldp	x28, x27, [sp, #288]
  403524:	a9517bfd 	ldp	x29, x30, [sp, #272]
  403528:	fd4083e8 	ldr	d8, [sp, #256]
  40352c:	9105c3ff 	add	sp, sp, #0x170
  403530:	d65f03c0 	ret
  403534:	b94002a8 	ldr	w8, [x21]
  403538:	51000509 	sub	w9, w8, #0x1
  40353c:	b90002a9 	str	w9, [x21]
  403540:	7100051f 	cmp	w8, #0x1
  403544:	54ffa821 	b.ne	402a48 <main+0x53c>  // b.any
  403548:	f9400288 	ldr	x8, [x20]
  40354c:	aa1403e0 	mov	x0, x20
  403550:	f9400d08 	ldr	x8, [x8, #24]
  403554:	d63f0100 	blr	x8
  403558:	a941e7f4 	ldp	x20, x25, [sp, #24]
  40355c:	eb19029f 	cmp	x20, x25
  403560:	540000a1 	b.ne	403574 <main+0x1068>  // b.any
  403564:	17fffd3c 	b	402a54 <main+0x548>
  403568:	91004294 	add	x20, x20, #0x10
  40356c:	eb19029f 	cmp	x20, x25
  403570:	54000500 	b.eq	403610 <main+0x1104>  // b.none
  403574:	f9400695 	ldr	x21, [x20, #8]
  403578:	b4ffff95 	cbz	x21, 403568 <main+0x105c>
  40357c:	910022a8 	add	x8, x21, #0x8
  403580:	b4000116 	cbz	x22, 4035a0 <main+0x1094>
  403584:	885ffd09 	ldaxr	w9, [x8]
  403588:	5100052a 	sub	w10, w9, #0x1
  40358c:	880bfd0a 	stlxr	w11, w10, [x8]
  403590:	35ffffab 	cbnz	w11, 403584 <main+0x1078>
  403594:	7100053f 	cmp	w9, #0x1
  403598:	54fffe81 	b.ne	403568 <main+0x105c>  // b.any
  40359c:	14000006 	b	4035b4 <main+0x10a8>
  4035a0:	b9400109 	ldr	w9, [x8]
  4035a4:	5100052a 	sub	w10, w9, #0x1
  4035a8:	b900010a 	str	w10, [x8]
  4035ac:	7100053f 	cmp	w9, #0x1
  4035b0:	54fffdc1 	b.ne	403568 <main+0x105c>  // b.any
  4035b4:	aa1503fa 	mov	x26, x21
  4035b8:	aa1503e0 	mov	x0, x21
  4035bc:	f840c748 	ldr	x8, [x26], #12
  4035c0:	f9400908 	ldr	x8, [x8, #16]
  4035c4:	d63f0100 	blr	x8
  4035c8:	b4000116 	cbz	x22, 4035e8 <main+0x10dc>
  4035cc:	885fff48 	ldaxr	w8, [x26]
  4035d0:	51000509 	sub	w9, w8, #0x1
  4035d4:	880aff49 	stlxr	w10, w9, [x26]
  4035d8:	35ffffaa 	cbnz	w10, 4035cc <main+0x10c0>
  4035dc:	7100051f 	cmp	w8, #0x1
  4035e0:	54fffc41 	b.ne	403568 <main+0x105c>  // b.any
  4035e4:	14000006 	b	4035fc <main+0x10f0>
  4035e8:	b9400348 	ldr	w8, [x26]
  4035ec:	51000509 	sub	w9, w8, #0x1
  4035f0:	b9000349 	str	w9, [x26]
  4035f4:	7100051f 	cmp	w8, #0x1
  4035f8:	54fffb81 	b.ne	403568 <main+0x105c>  // b.any
  4035fc:	f94002a8 	ldr	x8, [x21]
  403600:	aa1503e0 	mov	x0, x21
  403604:	f9400d08 	ldr	x8, [x8, #24]
  403608:	d63f0100 	blr	x8
  40360c:	17ffffd7 	b	403568 <main+0x105c>
  403610:	f9400ff4 	ldr	x20, [sp, #24]
  403614:	b5ffa234 	cbnz	x20, 402a58 <main+0x54c>
  403618:	17fffd12 	b	402a60 <main+0x554>
  40361c:	b9400328 	ldr	w8, [x25]
  403620:	51000509 	sub	w9, w8, #0x1
  403624:	b9000329 	str	w9, [x25]
  403628:	7100051f 	cmp	w8, #0x1
  40362c:	54ffdb60 	b.eq	403198 <main+0xc8c>  // b.none
  403630:	17fffede 	b	4031a8 <main+0xc9c>
  403634:	b9400328 	ldr	w8, [x25]
  403638:	51000509 	sub	w9, w8, #0x1
  40363c:	b9000329 	str	w9, [x25]
  403640:	7100051f 	cmp	w8, #0x1
  403644:	54ffdea0 	b.eq	403218 <main+0xd0c>  // b.none
  403648:	17fffef8 	b	403228 <main+0xd1c>
  40364c:	b9400288 	ldr	w8, [x20]
  403650:	51000509 	sub	w9, w8, #0x1
  403654:	b9000289 	str	w9, [x20]
  403658:	7100051f 	cmp	w8, #0x1
  40365c:	54fff500 	b.eq	4034fc <main+0xff0>  // b.none
  403660:	17ffffab 	b	40350c <main+0x1000>
  403664:	97fff9f7 	bl	401e40 <_ZSt16__throw_bad_castv@plt>
  403668:	b00000c0 	adrp	x0, 41c000 <_ZNSo3putEc@GLIBCXX_3.4>
  40366c:	910c0000 	add	x0, x0, #0x300
  403670:	f0000001 	adrp	x1, 406000 <_IO_stdin_used+0xa0>
  403674:	91079021 	add	x1, x1, #0x1e4
  403678:	528001c2 	mov	w2, #0xe                   	// #14
  40367c:	97fff9e5 	bl	401e10 <_ZSt16__ostream_insertIcSt11char_traitsIcEERSt13basic_ostreamIT_T0_ES6_PKS3_l@plt>
  403680:	b00000c0 	adrp	x0, 41c000 <_ZNSo3putEc@GLIBCXX_3.4>
  403684:	910c0000 	add	x0, x0, #0x300
  403688:	97fff996 	bl	401ce0 <_ZSt4endlIcSt11char_traitsIcEERSt13basic_ostreamIT_T0_ES6_@plt>
  40368c:	52800020 	mov	w0, #0x1                   	// #1
  403690:	97fffa28 	bl	401f30 <exit@plt>
  403694:	f9400261 	ldr	x1, [x19]
  403698:	b00000c0 	adrp	x0, 41c000 <_ZNSo3putEc@GLIBCXX_3.4>
  40369c:	910c0000 	add	x0, x0, #0x300
  4036a0:	97fff9c8 	bl	401dc0 <_ZStlsISt11char_traitsIcEERSt13basic_ostreamIcT_ES5_PKc@plt>
  4036a4:	f0000001 	adrp	x1, 406000 <_IO_stdin_used+0xa0>
  4036a8:	91072021 	add	x1, x1, #0x1c8
  4036ac:	97fff9c5 	bl	401dc0 <_ZStlsISt11char_traitsIcEERSt13basic_ostreamIcT_ES5_PKc@plt>
  4036b0:	97fff98c 	bl	401ce0 <_ZSt4endlIcSt11char_traitsIcEERSt13basic_ostreamIT_T0_ES6_@plt>
  4036b4:	52800020 	mov	w0, #0x1                   	// #1
  4036b8:	97fffa1e 	bl	401f30 <exit@plt>
  4036bc:	940002fc 	bl	4042ac <__clang_call_terminate>
  4036c0:	14000022 	b	403748 <main+0x123c>
  4036c4:	aa0003f3 	mov	x19, x0
  4036c8:	d10083a0 	sub	x0, x29, #0x20
  4036cc:	94000294 	bl	40411c <_ZN2cl4sycl5eventD2Ev>
  4036d0:	1400001f 	b	40374c <main+0x1240>
  4036d4:	f85d03a8 	ldur	x8, [x29, #-48]
  4036d8:	aa0003f3 	mov	x19, x0
  4036dc:	b4000388 	cbz	x8, 40374c <main+0x1240>
  4036e0:	d10103a0 	sub	x0, x29, #0x40
  4036e4:	d10103a1 	sub	x1, x29, #0x40
  4036e8:	52800062 	mov	w2, #0x3                   	// #3
  4036ec:	d63f0100 	blr	x8
  4036f0:	14000017 	b	40374c <main+0x1240>
  4036f4:	940002ee 	bl	4042ac <__clang_call_terminate>
  4036f8:	14000014 	b	403748 <main+0x123c>
  4036fc:	aa0003f3 	mov	x19, x0
  403700:	d10083a0 	sub	x0, x29, #0x20
  403704:	9400031f 	bl	404380 <_ZN2cl4sycl7contextD2Ev>
  403708:	910043e0 	add	x0, sp, #0x10
  40370c:	14000008 	b	40372c <main+0x1220>
  403710:	aa0003f3 	mov	x19, x0
  403714:	910043e0 	add	x0, sp, #0x10
  403718:	14000005 	b	40372c <main+0x1220>
  40371c:	14000002 	b	403724 <main+0x1218>
  403720:	14000001 	b	403724 <main+0x1218>
  403724:	aa0003f3 	mov	x19, x0
  403728:	d10103a0 	sub	x0, x29, #0x40
  40372c:	940001be 	bl	403e24 <_ZN2cl4sycl6detail16PropertyListBaseD2Ev>
  403730:	14000007 	b	40374c <main+0x1240>
  403734:	aa0003f3 	mov	x19, x0
  403738:	d10103a0 	sub	x0, x29, #0x40
  40373c:	940001ba 	bl	403e24 <_ZN2cl4sycl6detail16PropertyListBaseD2Ev>
  403740:	aa1303e0 	mov	x0, x19
  403744:	97fffa03 	bl	401f50 <_Unwind_Resume@plt>
  403748:	aa0003f3 	mov	x19, x0
  40374c:	d10183a0 	sub	x0, x29, #0x60
  403750:	940002a5 	bl	4041e4 <_ZN2cl4sycl5queueD2Ev>
  403754:	aa1303e0 	mov	x0, x19
  403758:	97fff9fe 	bl	401f50 <_Unwind_Resume@plt>

000000000040375c <_ZNSt17_Function_handlerIFvRN2cl4sycl7handlerEEZ4mainEUlS3_E_E9_M_invokeERKSt9_Any_dataS3_>:
  40375c:	d102c3ff 	sub	sp, sp, #0xb0
  403760:	a9067bfd 	stp	x29, x30, [sp, #96]
  403764:	a90767fa 	stp	x26, x25, [sp, #112]
  403768:	a9085ff8 	stp	x24, x23, [sp, #128]
  40376c:	a90957f6 	stp	x22, x21, [sp, #144]
  403770:	a90a4ff4 	stp	x20, x19, [sp, #160]
  403774:	910183fd 	add	x29, sp, #0x60
  403778:	f9400008 	ldr	x8, [x0]
  40377c:	a9402909 	ldp	x9, x10, [x8]
  403780:	a941310b 	ldp	x11, x12, [x8, #16]
  403784:	f9400129 	ldr	x9, [x9]
  403788:	f9400155 	ldr	x21, [x10]
  40378c:	a942210a 	ldp	x10, x8, [x8, #32]
  403790:	f9400177 	ldr	x23, [x11]
  403794:	f9400199 	ldr	x25, [x12]
  403798:	f9400158 	ldr	x24, [x10]
  40379c:	3945a02a 	ldrb	w10, [x1, #360]
  4037a0:	f940011a 	ldr	x26, [x8]
  4037a4:	a93e57a9 	stp	x9, x21, [x29, #-32]
  4037a8:	3500166a 	cbnz	w10, 403a74 <_ZNSt17_Function_handlerIFvRN2cl4sycl7handlerEEZ4mainEUlS3_E_E9_M_invokeERKSt9_Any_dataS3_+0x318>
  4037ac:	910083e8 	add	x8, sp, #0x20
  4037b0:	aa0103f3 	mov	x19, x1
  4037b4:	91004114 	add	x20, x8, #0x10
  4037b8:	528007c8 	mov	w8, #0x3e                  	// #62
  4037bc:	f90013f4 	str	x20, [sp, #32]
  4037c0:	f81f03a8 	stur	x8, [x29, #-16]
  4037c4:	910083e0 	add	x0, sp, #0x20
  4037c8:	d10043a1 	sub	x1, x29, #0x10
  4037cc:	aa1f03e2 	mov	x2, xzr
  4037d0:	97fff9e4 	bl	401f60 <_ZNSt7__cxx1112basic_stringIcSt11char_traitsIcESaIcEE9_M_createERmm@plt>
  4037d4:	f0000008 	adrp	x8, 406000 <_IO_stdin_used+0xa0>
  4037d8:	910c7508 	add	x8, x8, #0x31d
  4037dc:	f85f03a9 	ldur	x9, [x29, #-16]
  4037e0:	f90013e0 	str	x0, [sp, #32]
  4037e4:	ad400101 	ldp	q1, q0, [x8]
  4037e8:	3cc2e102 	ldur	q2, [x8, #46]
  4037ec:	ad000001 	stp	q1, q0, [x0]
  4037f0:	3dc00903 	ldr	q3, [x8, #32]
  4037f4:	4e080d20 	dup	v0.2d, x9
  4037f8:	3c82e002 	stur	q2, [x0, #46]
  4037fc:	3d800803 	str	q3, [x0, #32]
  403800:	3c8283e0 	stur	q0, [sp, #40]
  403804:	3829681f 	strb	wzr, [x0, x9]
  403808:	910083e1 	add	x1, sp, #0x20
  40380c:	aa1303e0 	mov	x0, x19
  403810:	97fff9a4 	bl	401ea0 <_ZN2cl4sycl7handler22verifyUsedKernelBundleERKNSt7__cxx1112basic_stringIcSt11char_traitsIcESaIcEEE@plt>
  403814:	f94013e0 	ldr	x0, [sp, #32]
  403818:	eb14001f 	cmp	x0, x20
  40381c:	54000040 	b.eq	403824 <_ZNSt17_Function_handlerIFvRN2cl4sycl7handlerEEZ4mainEUlS3_E_E9_M_invokeERKSt9_Any_dataS3_+0xc8>  // b.none
  403820:	97fff964 	bl	401db0 <_ZdlPv@plt>
  403824:	52800208 	mov	w8, #0x10                  	// #16
  403828:	52800409 	mov	w9, #0x20                  	// #32
  40382c:	5280800a 	mov	w10, #0x400                 	// #1024
  403830:	910063e1 	add	x1, sp, #0x18
  403834:	910043e2 	add	x2, sp, #0x10
  403838:	910023e3 	add	x3, sp, #0x8
  40383c:	aa1303e0 	mov	x0, x19
  403840:	a90123e9 	stp	x9, x8, [sp, #16]
  403844:	f90007ea 	str	x10, [sp, #8]
  403848:	97fff952 	bl	401d90 <_ZN2cl4sycl7handler24GetRangeRoundingSettingsERmS2_S2_@plt>
  40384c:	910083e8 	add	x8, sp, #0x20
  403850:	91004116 	add	x22, x8, #0x10
  403854:	52800768 	mov	w8, #0x3b                  	// #59
  403858:	f90013f6 	str	x22, [sp, #32]
  40385c:	f81f03a8 	stur	x8, [x29, #-16]
  403860:	910083e0 	add	x0, sp, #0x20
  403864:	d10043a1 	sub	x1, x29, #0x10
  403868:	aa1f03e2 	mov	x2, xzr
  40386c:	97fff9bd 	bl	401f60 <_ZNSt7__cxx1112basic_stringIcSt11char_traitsIcESaIcEE9_M_createERmm@plt>
  403870:	f0000008 	adrp	x8, 406000 <_IO_stdin_used+0xa0>
  403874:	91085d08 	add	x8, x8, #0x217
  403878:	f85f03a9 	ldur	x9, [x29, #-16]
  40387c:	f90013e0 	str	x0, [sp, #32]
  403880:	ad400101 	ldp	q1, q0, [x8]
  403884:	3cc2b102 	ldur	q2, [x8, #43]
  403888:	ad000001 	stp	q1, q0, [x0]
  40388c:	3dc00903 	ldr	q3, [x8, #32]
  403890:	4e080d20 	dup	v0.2d, x9
  403894:	3c82b002 	stur	q2, [x0, #43]
  403898:	3d800803 	str	q3, [x0, #32]
  40389c:	3c8283e0 	stur	q0, [sp, #40]
  4038a0:	3829681f 	strb	wzr, [x0, x9]
  4038a4:	aa1303e0 	mov	x0, x19
  4038a8:	97fff9ba 	bl	401f90 <_ZN2cl4sycl7handler20DisableRangeRoundingEv@plt>
  4038ac:	d10083a0 	sub	x0, x29, #0x20
  4038b0:	940002e6 	bl	404448 <_ZN2cl4sycl6detail15checkValueRangeILi2ENS0_5rangeILi2EEEEENSt9enable_ifIXoosr3std7is_sameIT0_NS3_IXT_EEEEE5valuesr3std7is_sameIS6_NS0_2idIXT_EEEEE5valueEvE4typeERKS6_>
  4038b4:	3cde03a0 	ldur	q0, [x29, #-32]
  4038b8:	aa1303e8 	mov	x8, x19
  4038bc:	52800029 	mov	w9, #0x1                   	// #1
  4038c0:	3c8d0d00 	str	q0, [x8, #208]!
  4038c4:	a9017d09 	stp	x9, xzr, [x8, #16]
  4038c8:	f0000009 	adrp	x9, 406000 <_IO_stdin_used+0xa0>
  4038cc:	a904fd1f 	stp	xzr, xzr, [x8, #72]
  4038d0:	a9037d1f 	stp	xzr, xzr, [x8, #48]
  4038d4:	3dc00120 	ldr	q0, [x9]
  4038d8:	a9027d1f 	stp	xzr, xzr, [x8, #32]
  4038dc:	f900211f 	str	xzr, [x8, #64]
  4038e0:	3c858100 	stur	q0, [x8, #88]
  4038e4:	52800500 	mov	w0, #0x28                  	// #40
  4038e8:	97fff93a 	bl	401dd0 <_Znwm@plt>
  4038ec:	aa0003f4 	mov	x20, x0
  4038f0:	f0000008 	adrp	x8, 406000 <_IO_stdin_used+0xa0>
  4038f4:	91194108 	add	x8, x8, #0x650
  4038f8:	f9000c1f 	str	xzr, [x0, #24]
  4038fc:	f9000008 	str	x8, [x0]
  403900:	52800500 	mov	w0, #0x28                  	// #40
  403904:	97fff933 	bl	401dd0 <_Znwm@plt>
  403908:	a9006417 	stp	x23, x25, [x0]
  40390c:	90000008 	adrp	x8, 403000 <main+0xaf4>
  403910:	912f4108 	add	x8, x8, #0xbd0
  403914:	a9016015 	stp	x21, x24, [x0, #16]
  403918:	f900101a 	str	x26, [x0, #32]
  40391c:	90000009 	adrp	x9, 403000 <main+0xaf4>
  403920:	91308129 	add	x9, x9, #0xc20
  403924:	f9000680 	str	x0, [x20, #8]
  403928:	f940d260 	ldr	x0, [x19, #416]
  40392c:	f900d274 	str	x20, [x19, #416]
  403930:	a901a289 	stp	x9, x8, [x20, #24]
  403934:	b40001e0 	cbz	x0, 403970 <_ZNSt17_Function_handlerIFvRN2cl4sycl7handlerEEZ4mainEUlS3_E_E9_M_invokeERKSt9_Any_dataS3_+0x214>
  403938:	f9400008 	ldr	x8, [x0]
  40393c:	f9400d08 	ldr	x8, [x8, #24]
  403940:	d63f0100 	blr	x8
  403944:	f9400e88 	ldr	x8, [x20, #24]
  403948:	91002295 	add	x21, x20, #0x8
  40394c:	b5000188 	cbnz	x8, 40397c <_ZNSt17_Function_handlerIFvRN2cl4sycl7handlerEEZ4mainEUlS3_E_E9_M_invokeERKSt9_Any_dataS3_+0x220>
  403950:	900000c8 	adrp	x8, 41b000 <GCC_except_table33+0xff8c>
  403954:	91336108 	add	x8, x8, #0xcd8
  403958:	f9400501 	ldr	x1, [x8, #8]
  40395c:	f0000008 	adrp	x8, 406000 <_IO_stdin_used+0xa0>
  403960:	9102e108 	add	x8, x8, #0xb8
  403964:	eb08003f 	cmp	x1, x8
  403968:	540001e1 	b.ne	4039a4 <_ZNSt17_Function_handlerIFvRN2cl4sycl7handlerEEZ4mainEUlS3_E_E9_M_invokeERKSt9_Any_dataS3_+0x248>  // b.any
  40396c:	14000012 	b	4039b4 <_ZNSt17_Function_handlerIFvRN2cl4sycl7handlerEEZ4mainEUlS3_E_E9_M_invokeERKSt9_Any_dataS3_+0x258>
  403970:	91002295 	add	x21, x20, #0x8
  403974:	90000008 	adrp	x8, 403000 <main+0xaf4>
  403978:	91308108 	add	x8, x8, #0xc20
  40397c:	91002281 	add	x1, x20, #0x8
  403980:	d10043a0 	sub	x0, x29, #0x10
  403984:	2a1f03e2 	mov	w2, wzr
  403988:	d63f0100 	blr	x8
  40398c:	f85f03a8 	ldur	x8, [x29, #-16]
  403990:	f9400501 	ldr	x1, [x8, #8]
  403994:	f0000008 	adrp	x8, 406000 <_IO_stdin_used+0xa0>
  403998:	9102e108 	add	x8, x8, #0xb8
  40399c:	eb08003f 	cmp	x1, x8
  4039a0:	540000a0 	b.eq	4039b4 <_ZNSt17_Function_handlerIFvRN2cl4sycl7handlerEEZ4mainEUlS3_E_E9_M_invokeERKSt9_Any_dataS3_+0x258>  // b.none
  4039a4:	f0000000 	adrp	x0, 406000 <_IO_stdin_used+0xa0>
  4039a8:	9102e000 	add	x0, x0, #0xb8
  4039ac:	97fff941 	bl	401eb0 <strcmp@plt>
  4039b0:	35000180 	cbnz	w0, 4039e0 <_ZNSt17_Function_handlerIFvRN2cl4sycl7handlerEEZ4mainEUlS3_E_E9_M_invokeERKSt9_Any_dataS3_+0x284>
  4039b4:	f9400e88 	ldr	x8, [x20, #24]
  4039b8:	b4000148 	cbz	x8, 4039e0 <_ZNSt17_Function_handlerIFvRN2cl4sycl7handlerEEZ4mainEUlS3_E_E9_M_invokeERKSt9_Any_dataS3_+0x284>
  4039bc:	d10043a0 	sub	x0, x29, #0x10
  4039c0:	aa1503e1 	mov	x1, x21
  4039c4:	52800022 	mov	w2, #0x1                   	// #1
  4039c8:	d63f0100 	blr	x8
  4039cc:	f85f03a1 	ldur	x1, [x29, #-16]
  4039d0:	a948a668 	ldp	x8, x9, [x19, #136]
  4039d4:	eb08013f 	cmp	x9, x8
  4039d8:	540000c1 	b.ne	4039f0 <_ZNSt17_Function_handlerIFvRN2cl4sycl7handlerEEZ4mainEUlS3_E_E9_M_invokeERKSt9_Any_dataS3_+0x294>  // b.any
  4039dc:	14000006 	b	4039f4 <_ZNSt17_Function_handlerIFvRN2cl4sycl7handlerEEZ4mainEUlS3_E_E9_M_invokeERKSt9_Any_dataS3_+0x298>
  4039e0:	aa1f03e1 	mov	x1, xzr
  4039e4:	a948a668 	ldp	x8, x9, [x19, #136]
  4039e8:	eb08013f 	cmp	x9, x8
  4039ec:	54000040 	b.eq	4039f4 <_ZNSt17_Function_handlerIFvRN2cl4sycl7handlerEEZ4mainEUlS3_E_E9_M_invokeERKSt9_Any_dataS3_+0x298>  // b.none
  4039f0:	f9004a68 	str	x8, [x19, #144]
  4039f4:	f0000003 	adrp	x3, 406000 <_IO_stdin_used+0xa0>
  4039f8:	9101c063 	add	x3, x3, #0x70
  4039fc:	aa1303e0 	mov	x0, x19
  403a00:	528000a2 	mov	w2, #0x5                   	// #5
  403a04:	2a1f03e4 	mov	w4, wzr
  403a08:	97fff942 	bl	401f10 <_ZN2cl4sycl7handler28extractArgsAndReqsFromLambdaEPcmPKNS0_6detail19kernel_param_desc_tEb@plt>
  403a0c:	9104e260 	add	x0, x19, #0x138
  403a10:	f940a262 	ldr	x2, [x19, #320]
  403a14:	f0000003 	adrp	x3, 406000 <_IO_stdin_used+0xa0>
  403a18:	910c7463 	add	x3, x3, #0x31d
  403a1c:	aa1f03e1 	mov	x1, xzr
  403a20:	528007c4 	mov	w4, #0x3e                  	// #62
  403a24:	97fff92b 	bl	401ed0 <_ZNSt7__cxx1112basic_stringIcSt11char_traitsIcESaIcEE10_M_replaceEmmPKcm@plt>
  403a28:	f0000000 	adrp	x0, 406000 <_IO_stdin_used+0xa0>
  403a2c:	910c7400 	add	x0, x0, #0x31d
  403a30:	97fff8f0 	bl	401df0 <_ZN2cl4sycl6detail6OSUtil17getOSModuleHandleEPKv@plt>
  403a34:	f94013e8 	ldr	x8, [sp, #32]
  403a38:	52800029 	mov	w9, #0x1                   	// #1
  403a3c:	72a02009 	movk	w9, #0x100, lsl #16
  403a40:	f900da60 	str	x0, [x19, #432]
  403a44:	eb16011f 	cmp	x8, x22
  403a48:	b9016a69 	str	w9, [x19, #360]
  403a4c:	54000060 	b.eq	403a58 <_ZNSt17_Function_handlerIFvRN2cl4sycl7handlerEEZ4mainEUlS3_E_E9_M_invokeERKSt9_Any_dataS3_+0x2fc>  // b.none
  403a50:	aa0803e0 	mov	x0, x8
  403a54:	97fff8d7 	bl	401db0 <_ZdlPv@plt>
  403a58:	a94a4ff4 	ldp	x20, x19, [sp, #160]
  403a5c:	a94957f6 	ldp	x22, x21, [sp, #144]
  403a60:	a9485ff8 	ldp	x24, x23, [sp, #128]
  403a64:	a94767fa 	ldp	x26, x25, [sp, #112]
  403a68:	a9467bfd 	ldp	x29, x30, [sp, #96]
  403a6c:	9102c3ff 	add	sp, sp, #0xb0
  403a70:	d65f03c0 	ret
  403a74:	52800800 	mov	w0, #0x40                  	// #64
  403a78:	97fff89e 	bl	401cf0 <__cxa_allocate_exception@plt>
  403a7c:	aa0003f4 	mov	x20, x0
  403a80:	f0000001 	adrp	x1, 406000 <_IO_stdin_used+0xa0>
  403a84:	91094c21 	add	x1, x1, #0x253
  403a88:	12800742 	mov	w2, #0xffffffc5            	// #-59
  403a8c:	94000299 	bl	4044f0 <_ZN2cl4sycl13runtime_errorC2EPKci>
  403a90:	f0000001 	adrp	x1, 406000 <_IO_stdin_used+0xa0>
  403a94:	91166021 	add	x1, x1, #0x598
  403a98:	b0000002 	adrp	x2, 404000 <_ZN2cl4sycl13malloc_sharedIfEEPT_mRKNS0_5queueERKNS0_13property_listENS0_6detail13code_locationE+0xd0>
  403a9c:	911b3042 	add	x2, x2, #0x6cc
  403aa0:	aa1403e0 	mov	x0, x20
  403aa4:	97fff91f 	bl	401f20 <__cxa_throw@plt>
  403aa8:	94000201 	bl	4042ac <__clang_call_terminate>
  403aac:	aa0003f3 	mov	x19, x0
  403ab0:	aa1403e0 	mov	x0, x20
  403ab4:	97fff8b3 	bl	401d80 <__cxa_free_exception@plt>
  403ab8:	14000014 	b	403b08 <_ZNSt17_Function_handlerIFvRN2cl4sycl7handlerEEZ4mainEUlS3_E_E9_M_invokeERKSt9_Any_dataS3_+0x3ac>
  403abc:	940001fc 	bl	4042ac <__clang_call_terminate>
  403ac0:	aa0003f3 	mov	x19, x0
  403ac4:	aa1403e0 	mov	x0, x20
  403ac8:	97fff8ba 	bl	401db0 <_ZdlPv@plt>
  403acc:	1400000c 	b	403afc <_ZNSt17_Function_handlerIFvRN2cl4sycl7handlerEEZ4mainEUlS3_E_E9_M_invokeERKSt9_Any_dataS3_+0x3a0>
  403ad0:	97fff920 	bl	401f50 <_Unwind_Resume@plt>
  403ad4:	f94013e8 	ldr	x8, [sp, #32]
  403ad8:	aa0003f3 	mov	x19, x0
  403adc:	eb14011f 	cmp	x8, x20
  403ae0:	54000140 	b.eq	403b08 <_ZNSt17_Function_handlerIFvRN2cl4sycl7handlerEEZ4mainEUlS3_E_E9_M_invokeERKSt9_Any_dataS3_+0x3ac>  // b.none
  403ae4:	aa0803e0 	mov	x0, x8
  403ae8:	97fff8b2 	bl	401db0 <_ZdlPv@plt>
  403aec:	aa1303e0 	mov	x0, x19
  403af0:	97fff918 	bl	401f50 <_Unwind_Resume@plt>
  403af4:	97fff917 	bl	401f50 <_Unwind_Resume@plt>
  403af8:	aa0003f3 	mov	x19, x0
  403afc:	f94013e0 	ldr	x0, [sp, #32]
  403b00:	eb16001f 	cmp	x0, x22
  403b04:	54000061 	b.ne	403b10 <_ZNSt17_Function_handlerIFvRN2cl4sycl7handlerEEZ4mainEUlS3_E_E9_M_invokeERKSt9_Any_dataS3_+0x3b4>  // b.any
  403b08:	aa1303e0 	mov	x0, x19
  403b0c:	97fff911 	bl	401f50 <_Unwind_Resume@plt>
  403b10:	97fff8a8 	bl	401db0 <_ZdlPv@plt>
  403b14:	aa1303e0 	mov	x0, x19
  403b18:	97fff90e 	bl	401f50 <_Unwind_Resume@plt>

0000000000403b1c <_ZNSt14_Function_base13_Base_managerIZ4mainEUlRN2cl4sycl7handlerEE_E10_M_managerERSt9_Any_dataRKS7_St18_Manager_operation>:
  403b1c:	a9be7bfd 	stp	x29, x30, [sp, #-32]!
  403b20:	a9014ff4 	stp	x20, x19, [sp, #16]
  403b24:	910003fd 	mov	x29, sp
  403b28:	71000c5f 	cmp	w2, #0x3
  403b2c:	54000188 	b.hi	403b5c <_ZNSt14_Function_base13_Base_managerIZ4mainEUlRN2cl4sycl7handlerEE_E10_M_managerERSt9_Any_dataRKS7_St18_Manager_operation+0x40>  // b.pmore
  403b30:	2a0203e8 	mov	w8, w2
  403b34:	f0000009 	adrp	x9, 406000 <_IO_stdin_used+0xa0>
  403b38:	91008129 	add	x9, x9, #0x20
  403b3c:	aa0003f3 	mov	x19, x0
  403b40:	1000008a 	adr	x10, 403b50 <_ZNSt14_Function_base13_Base_managerIZ4mainEUlRN2cl4sycl7handlerEE_E10_M_managerERSt9_Any_dataRKS7_St18_Manager_operation+0x34>
  403b44:	3868692b 	ldrb	w11, [x9, x8]
  403b48:	8b0b094a 	add	x10, x10, x11, lsl #2
  403b4c:	d61f0140 	br	x10
  403b50:	f0000008 	adrp	x8, 406000 <_IO_stdin_used+0xa0>
  403b54:	9106e108 	add	x8, x8, #0x1b8
  403b58:	f9000268 	str	x8, [x19]
  403b5c:	2a1f03e0 	mov	w0, wzr
  403b60:	a9414ff4 	ldp	x20, x19, [sp, #16]
  403b64:	a8c27bfd 	ldp	x29, x30, [sp], #32
  403b68:	d65f03c0 	ret
  403b6c:	f9400028 	ldr	x8, [x1]
  403b70:	f9000268 	str	x8, [x19]
  403b74:	2a1f03e0 	mov	w0, wzr
  403b78:	a9414ff4 	ldp	x20, x19, [sp, #16]
  403b7c:	a8c27bfd 	ldp	x29, x30, [sp], #32
  403b80:	d65f03c0 	ret
  403b84:	52800600 	mov	w0, #0x30                  	// #48
  403b88:	f9400034 	ldr	x20, [x1]
  403b8c:	97fff891 	bl	401dd0 <_Znwm@plt>
  403b90:	ad400680 	ldp	q0, q1, [x20]
  403b94:	3dc00a82 	ldr	q2, [x20, #32]
  403b98:	ad000400 	stp	q0, q1, [x0]
  403b9c:	f9000260 	str	x0, [x19]
  403ba0:	3d800802 	str	q2, [x0, #32]
  403ba4:	2a1f03e0 	mov	w0, wzr
  403ba8:	a9414ff4 	ldp	x20, x19, [sp, #16]
  403bac:	a8c27bfd 	ldp	x29, x30, [sp], #32
  403bb0:	d65f03c0 	ret
  403bb4:	f9400260 	ldr	x0, [x19]
  403bb8:	b4fffd20 	cbz	x0, 403b5c <_ZNSt14_Function_base13_Base_managerIZ4mainEUlRN2cl4sycl7handlerEE_E10_M_managerERSt9_Any_dataRKS7_St18_Manager_operation+0x40>
  403bbc:	97fff87d 	bl	401db0 <_ZdlPv@plt>
  403bc0:	2a1f03e0 	mov	w0, wzr
  403bc4:	a9414ff4 	ldp	x20, x19, [sp, #16]
  403bc8:	a8c27bfd 	ldp	x29, x30, [sp], #32
  403bcc:	d65f03c0 	ret

0000000000403bd0 <_ZNSt17_Function_handlerIFvRKN2cl4sycl7nd_itemILi2EEEEZNS1_7handler15ResetHostKernelIZZ4mainENKUlRS7_E_clES9_EUlNS1_2idILi2EEEE_NS1_4itemILi2ELb1EEELi2EEENSt9enable_ifIXsr3std7is_sameIT0_NSE_IXT1_ELb1EEEEE5valueEPT_E4typeERKSJ_E20NormalizedKernelTypeE9_M_invokeERKSt9_Any_dataS5_>:
  403bd0:	f940000b 	ldr	x11, [x0]
  403bd4:	f9400168 	ldr	x8, [x11]
  403bd8:	b4000228 	cbz	x8, 403c1c <_ZNSt17_Function_handlerIFvRKN2cl4sycl7nd_itemILi2EEEEZNS1_7handler15ResetHostKernelIZZ4mainENKUlRS7_E_clES9_EUlNS1_2idILi2EEEE_NS1_4itemILi2ELb1EEELi2EEENSt9enable_ifIXsr3std7is_sameIT0_NSE_IXT1_ELb1EEEEE5valueEPT_E4typeERKSJ_E20NormalizedKernelTypeE9_M_invokeERKSt9_Any_dataS5_+0x4c>
  403bdc:	a941342c 	ldp	x12, x13, [x1, #16]
  403be0:	a940b969 	ldp	x9, x14, [x11, #8]
  403be4:	a941bd70 	ldp	x16, x15, [x11, #24]
  403be8:	9b0c7d11 	mul	x17, x8, x12
  403bec:	9b0c35ca 	madd	x10, x14, x12, x13
  403bf0:	d37ef5cc 	lsl	x12, x14, #2
  403bf4:	8b0d09eb 	add	x11, x15, x13, lsl #2
  403bf8:	8b110a0d 	add	x13, x16, x17, lsl #2
  403bfc:	bc6a7920 	ldr	s0, [x9, x10, lsl #2]
  403c00:	bc4045a1 	ldr	s1, [x13], #4
  403c04:	bd400162 	ldr	s2, [x11]
  403c08:	f1000508 	subs	x8, x8, #0x1
  403c0c:	8b0c016b 	add	x11, x11, x12
  403c10:	1f020020 	fmadd	s0, s1, s2, s0
  403c14:	bc2a7920 	str	s0, [x9, x10, lsl #2]
  403c18:	54ffff41 	b.ne	403c00 <_ZNSt17_Function_handlerIFvRKN2cl4sycl7nd_itemILi2EEEEZNS1_7handler15ResetHostKernelIZZ4mainENKUlRS7_E_clES9_EUlNS1_2idILi2EEEE_NS1_4itemILi2ELb1EEELi2EEENSt9enable_ifIXsr3std7is_sameIT0_NSE_IXT1_ELb1EEEEE5valueEPT_E4typeERKSJ_E20NormalizedKernelTypeE9_M_invokeERKSt9_Any_dataS5_+0x30>  // b.any
  403c1c:	d65f03c0 	ret

0000000000403c20 <_ZNSt14_Function_base13_Base_managerIZN2cl4sycl7handler15ResetHostKernelIZZ4mainENKUlRS3_E_clES5_EUlNS2_2idILi2EEEE_NS2_4itemILi2ELb1EEELi2EEENSt9enable_ifIXsr3std7is_sameIT0_NSA_IXT1_ELb1EEEEE5valueEPT_E4typeERKSF_E20NormalizedKernelTypeE10_M_managerERSt9_Any_dataRKSN_St18_Manager_operation>:
  403c20:	a9be7bfd 	stp	x29, x30, [sp, #-32]!
  403c24:	a9014ff4 	stp	x20, x19, [sp, #16]
  403c28:	910003fd 	mov	x29, sp
  403c2c:	71000c5f 	cmp	w2, #0x3
  403c30:	54000188 	b.hi	403c60 <_ZNSt14_Function_base13_Base_managerIZN2cl4sycl7handler15ResetHostKernelIZZ4mainENKUlRS3_E_clES5_EUlNS2_2idILi2EEEE_NS2_4itemILi2ELb1EEELi2EEENSt9enable_ifIXsr3std7is_sameIT0_NSA_IXT1_ELb1EEEEE5valueEPT_E4typeERKSF_E20NormalizedKernelTypeE10_M_managerERSt9_Any_dataRKSN_St18_Manager_operation+0x40>  // b.pmore
  403c34:	2a0203e8 	mov	w8, w2
  403c38:	f0000009 	adrp	x9, 406000 <_IO_stdin_used+0xa0>
  403c3c:	91009129 	add	x9, x9, #0x24
  403c40:	aa0003f3 	mov	x19, x0
  403c44:	1000008a 	adr	x10, 403c54 <_ZNSt14_Function_base13_Base_managerIZN2cl4sycl7handler15ResetHostKernelIZZ4mainENKUlRS3_E_clES5_EUlNS2_2idILi2EEEE_NS2_4itemILi2ELb1EEELi2EEENSt9enable_ifIXsr3std7is_sameIT0_NSA_IXT1_ELb1EEEEE5valueEPT_E4typeERKSF_E20NormalizedKernelTypeE10_M_managerERSt9_Any_dataRKSN_St18_Manager_operation+0x34>
  403c48:	3868692b 	ldrb	w11, [x9, x8]
  403c4c:	8b0b094a 	add	x10, x10, x11, lsl #2
  403c50:	d61f0140 	br	x10
  403c54:	f0000008 	adrp	x8, 406000 <_IO_stdin_used+0xa0>
  403c58:	91062108 	add	x8, x8, #0x188
  403c5c:	f9000268 	str	x8, [x19]
  403c60:	2a1f03e0 	mov	w0, wzr
  403c64:	a9414ff4 	ldp	x20, x19, [sp, #16]
  403c68:	a8c27bfd 	ldp	x29, x30, [sp], #32
  403c6c:	d65f03c0 	ret
  403c70:	f9400028 	ldr	x8, [x1]
  403c74:	f9000268 	str	x8, [x19]
  403c78:	2a1f03e0 	mov	w0, wzr
  403c7c:	a9414ff4 	ldp	x20, x19, [sp, #16]
  403c80:	a8c27bfd 	ldp	x29, x30, [sp], #32
  403c84:	d65f03c0 	ret
  403c88:	52800500 	mov	w0, #0x28                  	// #40
  403c8c:	f9400034 	ldr	x20, [x1]
  403c90:	97fff850 	bl	401dd0 <_Znwm@plt>
  403c94:	ad400680 	ldp	q0, q1, [x20]
  403c98:	f9401288 	ldr	x8, [x20, #32]
  403c9c:	ad000400 	stp	q0, q1, [x0]
  403ca0:	f9000260 	str	x0, [x19]
  403ca4:	f9001008 	str	x8, [x0, #32]
  403ca8:	2a1f03e0 	mov	w0, wzr
  403cac:	a9414ff4 	ldp	x20, x19, [sp, #16]
  403cb0:	a8c27bfd 	ldp	x29, x30, [sp], #32
  403cb4:	d65f03c0 	ret
  403cb8:	f9400260 	ldr	x0, [x19]
  403cbc:	b4fffd20 	cbz	x0, 403c60 <_ZNSt14_Function_base13_Base_managerIZN2cl4sycl7handler15ResetHostKernelIZZ4mainENKUlRS3_E_clES5_EUlNS2_2idILi2EEEE_NS2_4itemILi2ELb1EEELi2EEENSt9enable_ifIXsr3std7is_sameIT0_NSA_IXT1_ELb1EEEEE5valueEPT_E4typeERKSF_E20NormalizedKernelTypeE10_M_managerERSt9_Any_dataRKSN_St18_Manager_operation+0x40>
  403cc0:	97fff83c 	bl	401db0 <_ZdlPv@plt>
  403cc4:	2a1f03e0 	mov	w0, wzr
  403cc8:	a9414ff4 	ldp	x20, x19, [sp, #16]
  403ccc:	a8c27bfd 	ldp	x29, x30, [sp], #32
  403cd0:	d65f03c0 	ret

0000000000403cd4 <_ZN2cl4sycl5queueC2ERKNS0_13property_listE>:
  403cd4:	d10183ff 	sub	sp, sp, #0x60
  403cd8:	a9037bfd 	stp	x29, x30, [sp, #48]
  403cdc:	f90023f5 	str	x21, [sp, #64]
  403ce0:	a9054ff4 	stp	x20, x19, [sp, #80]
  403ce4:	9100c3fd 	add	x29, sp, #0x30
  403ce8:	900000c8 	adrp	x8, 41b000 <GCC_except_table33+0xff8c>
  403cec:	91360108 	add	x8, x8, #0xd80
  403cf0:	aa0003f4 	mov	x20, x0
  403cf4:	910063a0 	add	x0, x29, #0x18
  403cf8:	aa0103f3 	mov	x19, x1
  403cfc:	f9000bff 	str	xzr, [sp, #16]
  403d00:	f9400909 	ldr	x9, [x8, #16]
  403d04:	f9000fa8 	str	x8, [x29, #24]
  403d08:	d10043a8 	sub	x8, x29, #0x10
  403d0c:	d63f0120 	blr	x9
  403d10:	d10043a1 	sub	x1, x29, #0x10
  403d14:	910003e2 	mov	x2, sp
  403d18:	aa1403e0 	mov	x0, x20
  403d1c:	aa1303e3 	mov	x3, x19
  403d20:	97fff7cc 	bl	401c50 <_ZN2cl4sycl5queueC2ERKNS0_6deviceERKSt8functionIFvNS0_14exception_listEEERKNS0_13property_listE@plt>
  403d24:	f85f83b3 	ldur	x19, [x29, #-8]
  403d28:	b4000433 	cbz	x19, 403dac <_ZN2cl4sycl5queueC2ERKNS0_13property_listE+0xd8>
  403d2c:	900000d4 	adrp	x20, 41b000 <GCC_except_table33+0xff8c>
  403d30:	91002268 	add	x8, x19, #0x8
  403d34:	f947ea94 	ldr	x20, [x20, #4048]
  403d38:	b4000114 	cbz	x20, 403d58 <_ZN2cl4sycl5queueC2ERKNS0_13property_listE+0x84>
  403d3c:	885ffd09 	ldaxr	w9, [x8]
  403d40:	5100052a 	sub	w10, w9, #0x1
  403d44:	880bfd0a 	stlxr	w11, w10, [x8]
  403d48:	35ffffab 	cbnz	w11, 403d3c <_ZN2cl4sycl5queueC2ERKNS0_13property_listE+0x68>
  403d4c:	7100053f 	cmp	w9, #0x1
  403d50:	540000e0 	b.eq	403d6c <_ZN2cl4sycl5queueC2ERKNS0_13property_listE+0x98>  // b.none
  403d54:	14000016 	b	403dac <_ZN2cl4sycl5queueC2ERKNS0_13property_listE+0xd8>
  403d58:	b9400109 	ldr	w9, [x8]
  403d5c:	5100052a 	sub	w10, w9, #0x1
  403d60:	b900010a 	str	w10, [x8]
  403d64:	7100053f 	cmp	w9, #0x1
  403d68:	54000221 	b.ne	403dac <_ZN2cl4sycl5queueC2ERKNS0_13property_listE+0xd8>  // b.any
  403d6c:	aa1303f5 	mov	x21, x19
  403d70:	aa1303e0 	mov	x0, x19
  403d74:	f840c6a8 	ldr	x8, [x21], #12
  403d78:	f9400908 	ldr	x8, [x8, #16]
  403d7c:	d63f0100 	blr	x8
  403d80:	b40002d4 	cbz	x20, 403dd8 <_ZN2cl4sycl5queueC2ERKNS0_13property_listE+0x104>
  403d84:	885ffea8 	ldaxr	w8, [x21]
  403d88:	51000509 	sub	w9, w8, #0x1
  403d8c:	880afea9 	stlxr	w10, w9, [x21]
  403d90:	35ffffaa 	cbnz	w10, 403d84 <_ZN2cl4sycl5queueC2ERKNS0_13property_listE+0xb0>
  403d94:	7100051f 	cmp	w8, #0x1
  403d98:	540000a1 	b.ne	403dac <_ZN2cl4sycl5queueC2ERKNS0_13property_listE+0xd8>  // b.any
  403d9c:	f9400268 	ldr	x8, [x19]
  403da0:	aa1303e0 	mov	x0, x19
  403da4:	f9400d08 	ldr	x8, [x8, #24]
  403da8:	d63f0100 	blr	x8
  403dac:	f9400be8 	ldr	x8, [sp, #16]
  403db0:	b40000a8 	cbz	x8, 403dc4 <_ZN2cl4sycl5queueC2ERKNS0_13property_listE+0xf0>
  403db4:	910003e0 	mov	x0, sp
  403db8:	910003e1 	mov	x1, sp
  403dbc:	52800062 	mov	w2, #0x3                   	// #3
  403dc0:	d63f0100 	blr	x8
  403dc4:	a9454ff4 	ldp	x20, x19, [sp, #80]
  403dc8:	a9437bfd 	ldp	x29, x30, [sp, #48]
  403dcc:	f94023f5 	ldr	x21, [sp, #64]
  403dd0:	910183ff 	add	sp, sp, #0x60
  403dd4:	d65f03c0 	ret
  403dd8:	b94002a8 	ldr	w8, [x21]
  403ddc:	51000509 	sub	w9, w8, #0x1
  403de0:	b90002a9 	str	w9, [x21]
  403de4:	7100051f 	cmp	w8, #0x1
  403de8:	54fffda0 	b.eq	403d9c <_ZN2cl4sycl5queueC2ERKNS0_13property_listE+0xc8>  // b.none
  403dec:	17fffff0 	b	403dac <_ZN2cl4sycl5queueC2ERKNS0_13property_listE+0xd8>
  403df0:	9400012f 	bl	4042ac <__clang_call_terminate>
  403df4:	aa0003f3 	mov	x19, x0
  403df8:	d10043a0 	sub	x0, x29, #0x10
  403dfc:	9400012f 	bl	4042b8 <_ZN2cl4sycl6deviceD2Ev>
  403e00:	f9400be8 	ldr	x8, [sp, #16]
  403e04:	b40000a8 	cbz	x8, 403e18 <_ZN2cl4sycl5queueC2ERKNS0_13property_listE+0x144>
  403e08:	910003e0 	mov	x0, sp
  403e0c:	910003e1 	mov	x1, sp
  403e10:	52800062 	mov	w2, #0x3                   	// #3
  403e14:	d63f0100 	blr	x8
  403e18:	aa1303e0 	mov	x0, x19
  403e1c:	97fff84d 	bl	401f50 <_Unwind_Resume@plt>
  403e20:	94000123 	bl	4042ac <__clang_call_terminate>

0000000000403e24 <_ZN2cl4sycl6detail16PropertyListBaseD2Ev>:
  403e24:	a9bc7bfd 	stp	x29, x30, [sp, #-64]!
  403e28:	a9015ff8 	stp	x24, x23, [sp, #16]
  403e2c:	a90257f6 	stp	x22, x21, [sp, #32]
  403e30:	a9034ff4 	stp	x20, x19, [sp, #48]
  403e34:	910003fd 	mov	x29, sp
  403e38:	a940d813 	ldp	x19, x22, [x0, #8]
  403e3c:	eb16027f 	cmp	x19, x22
  403e40:	54000600 	b.eq	403f00 <_ZN2cl4sycl6detail16PropertyListBaseD2Ev+0xdc>  // b.none
  403e44:	900000d7 	adrp	x23, 41b000 <GCC_except_table33+0xff8c>
  403e48:	aa0003f4 	mov	x20, x0
  403e4c:	f947eaf7 	ldr	x23, [x23, #4048]
  403e50:	14000004 	b	403e60 <_ZN2cl4sycl6detail16PropertyListBaseD2Ev+0x3c>
  403e54:	91004273 	add	x19, x19, #0x10
  403e58:	eb16027f 	cmp	x19, x22
  403e5c:	54000500 	b.eq	403efc <_ZN2cl4sycl6detail16PropertyListBaseD2Ev+0xd8>  // b.none
  403e60:	f9400675 	ldr	x21, [x19, #8]
  403e64:	b4ffff95 	cbz	x21, 403e54 <_ZN2cl4sycl6detail16PropertyListBaseD2Ev+0x30>
  403e68:	910022a8 	add	x8, x21, #0x8
  403e6c:	b4000117 	cbz	x23, 403e8c <_ZN2cl4sycl6detail16PropertyListBaseD2Ev+0x68>
  403e70:	885ffd09 	ldaxr	w9, [x8]
  403e74:	5100052a 	sub	w10, w9, #0x1
  403e78:	880bfd0a 	stlxr	w11, w10, [x8]
  403e7c:	35ffffab 	cbnz	w11, 403e70 <_ZN2cl4sycl6detail16PropertyListBaseD2Ev+0x4c>
  403e80:	7100053f 	cmp	w9, #0x1
  403e84:	54fffe81 	b.ne	403e54 <_ZN2cl4sycl6detail16PropertyListBaseD2Ev+0x30>  // b.any
  403e88:	14000006 	b	403ea0 <_ZN2cl4sycl6detail16PropertyListBaseD2Ev+0x7c>
  403e8c:	b9400109 	ldr	w9, [x8]
  403e90:	5100052a 	sub	w10, w9, #0x1
  403e94:	b900010a 	str	w10, [x8]
  403e98:	7100053f 	cmp	w9, #0x1
  403e9c:	54fffdc1 	b.ne	403e54 <_ZN2cl4sycl6detail16PropertyListBaseD2Ev+0x30>  // b.any
  403ea0:	aa1503f8 	mov	x24, x21
  403ea4:	aa1503e0 	mov	x0, x21
  403ea8:	f840c708 	ldr	x8, [x24], #12
  403eac:	f9400908 	ldr	x8, [x8, #16]
  403eb0:	d63f0100 	blr	x8
  403eb4:	b4000117 	cbz	x23, 403ed4 <_ZN2cl4sycl6detail16PropertyListBaseD2Ev+0xb0>
  403eb8:	885fff08 	ldaxr	w8, [x24]
  403ebc:	51000509 	sub	w9, w8, #0x1
  403ec0:	880aff09 	stlxr	w10, w9, [x24]
  403ec4:	35ffffaa 	cbnz	w10, 403eb8 <_ZN2cl4sycl6detail16PropertyListBaseD2Ev+0x94>
  403ec8:	7100051f 	cmp	w8, #0x1
  403ecc:	54fffc41 	b.ne	403e54 <_ZN2cl4sycl6detail16PropertyListBaseD2Ev+0x30>  // b.any
  403ed0:	14000006 	b	403ee8 <_ZN2cl4sycl6detail16PropertyListBaseD2Ev+0xc4>
  403ed4:	b9400308 	ldr	w8, [x24]
  403ed8:	51000509 	sub	w9, w8, #0x1
  403edc:	b9000309 	str	w9, [x24]
  403ee0:	7100051f 	cmp	w8, #0x1
  403ee4:	54fffb81 	b.ne	403e54 <_ZN2cl4sycl6detail16PropertyListBaseD2Ev+0x30>  // b.any
  403ee8:	f94002a8 	ldr	x8, [x21]
  403eec:	aa1503e0 	mov	x0, x21
  403ef0:	f9400d08 	ldr	x8, [x8, #24]
  403ef4:	d63f0100 	blr	x8
  403ef8:	17ffffd7 	b	403e54 <_ZN2cl4sycl6detail16PropertyListBaseD2Ev+0x30>
  403efc:	f9400693 	ldr	x19, [x20, #8]
  403f00:	b40000f3 	cbz	x19, 403f1c <_ZN2cl4sycl6detail16PropertyListBaseD2Ev+0xf8>
  403f04:	aa1303e0 	mov	x0, x19
  403f08:	a9434ff4 	ldp	x20, x19, [sp, #48]
  403f0c:	a94257f6 	ldp	x22, x21, [sp, #32]
  403f10:	a9415ff8 	ldp	x24, x23, [sp, #16]
  403f14:	a8c47bfd 	ldp	x29, x30, [sp], #64
  403f18:	17fff7a6 	b	401db0 <_ZdlPv@plt>
  403f1c:	a9434ff4 	ldp	x20, x19, [sp, #48]
  403f20:	a94257f6 	ldp	x22, x21, [sp, #32]
  403f24:	a9415ff8 	ldp	x24, x23, [sp, #16]
  403f28:	a8c47bfd 	ldp	x29, x30, [sp], #64
  403f2c:	d65f03c0 	ret

0000000000403f30 <_ZN2cl4sycl13malloc_sharedIfEEPT_mRKNS0_5queueERKNS0_13property_listENS0_6detail13code_locationE>:
  403f30:	d101c3ff 	sub	sp, sp, #0x70
  403f34:	a9047bfd 	stp	x29, x30, [sp, #64]
  403f38:	a90557f6 	stp	x22, x21, [sp, #80]
  403f3c:	a9064ff4 	stp	x20, x19, [sp, #96]
  403f40:	910103fd 	add	x29, sp, #0x40
  403f44:	aa0003f5 	mov	x21, x0
  403f48:	910043e8 	add	x8, sp, #0x10
  403f4c:	aa0103e0 	mov	x0, x1
  403f50:	aa0303f4 	mov	x20, x3
  403f54:	aa0203f3 	mov	x19, x2
  403f58:	aa0103f6 	mov	x22, x1
  403f5c:	97fff739 	bl	401c40 <_ZNK2cl4sycl5queue10get_deviceEv@plt>
  403f60:	910003e8 	mov	x8, sp
  403f64:	aa1603e0 	mov	x0, x22
  403f68:	97fff7b2 	bl	401e30 <_ZNK2cl4sycl5queue11get_contextEv@plt>
  403f6c:	ad400680 	ldp	q0, q1, [x20]
  403f70:	d37ef6a1 	lsl	x1, x21, #2
  403f74:	ad0107e0 	stp	q0, q1, [sp, #32]
  403f78:	910043e2 	add	x2, sp, #0x10
  403f7c:	910003e3 	mov	x3, sp
  403f80:	910083e5 	add	x5, sp, #0x20
  403f84:	52800080 	mov	w0, #0x4                   	// #4
  403f88:	aa1303e4 	mov	x4, x19
  403f8c:	97fff751 	bl	401cd0 <_ZN2cl4sycl20aligned_alloc_sharedEmmRKNS0_6deviceERKNS0_7contextERKNS0_13property_listENS0_6detail13code_locationE@plt>
  403f90:	900000d5 	adrp	x21, 41b000 <GCC_except_table33+0xff8c>
  403f94:	aa0003f3 	mov	x19, x0
  403f98:	f94007f4 	ldr	x20, [sp, #8]
  403f9c:	f947eab5 	ldr	x21, [x21, #4048]
  403fa0:	b40003f4 	cbz	x20, 40401c <_ZN2cl4sycl13malloc_sharedIfEEPT_mRKNS0_5queueERKNS0_13property_listENS0_6detail13code_locationE+0xec>
  403fa4:	91002288 	add	x8, x20, #0x8
  403fa8:	b4000115 	cbz	x21, 403fc8 <_ZN2cl4sycl13malloc_sharedIfEEPT_mRKNS0_5queueERKNS0_13property_listENS0_6detail13code_locationE+0x98>
  403fac:	885ffd09 	ldaxr	w9, [x8]
  403fb0:	5100052a 	sub	w10, w9, #0x1
  403fb4:	880bfd0a 	stlxr	w11, w10, [x8]
  403fb8:	35ffffab 	cbnz	w11, 403fac <_ZN2cl4sycl13malloc_sharedIfEEPT_mRKNS0_5queueERKNS0_13property_listENS0_6detail13code_locationE+0x7c>
  403fbc:	7100053f 	cmp	w9, #0x1
  403fc0:	540000e0 	b.eq	403fdc <_ZN2cl4sycl13malloc_sharedIfEEPT_mRKNS0_5queueERKNS0_13property_listENS0_6detail13code_locationE+0xac>  // b.none
  403fc4:	14000016 	b	40401c <_ZN2cl4sycl13malloc_sharedIfEEPT_mRKNS0_5queueERKNS0_13property_listENS0_6detail13code_locationE+0xec>
  403fc8:	b9400109 	ldr	w9, [x8]
  403fcc:	5100052a 	sub	w10, w9, #0x1
  403fd0:	b900010a 	str	w10, [x8]
  403fd4:	7100053f 	cmp	w9, #0x1
  403fd8:	54000221 	b.ne	40401c <_ZN2cl4sycl13malloc_sharedIfEEPT_mRKNS0_5queueERKNS0_13property_listENS0_6detail13code_locationE+0xec>  // b.any
  403fdc:	aa1403f6 	mov	x22, x20
  403fe0:	aa1403e0 	mov	x0, x20
  403fe4:	f840c6c8 	ldr	x8, [x22], #12
  403fe8:	f9400908 	ldr	x8, [x8, #16]
  403fec:	d63f0100 	blr	x8
  403ff0:	b40005b5 	cbz	x21, 4040a4 <_ZN2cl4sycl13malloc_sharedIfEEPT_mRKNS0_5queueERKNS0_13property_listENS0_6detail13code_locationE+0x174>
  403ff4:	885ffec8 	ldaxr	w8, [x22]
  403ff8:	51000509 	sub	w9, w8, #0x1
  403ffc:	880afec9 	stlxr	w10, w9, [x22]
  404000:	35ffffaa 	cbnz	w10, 403ff4 <_ZN2cl4sycl13malloc_sharedIfEEPT_mRKNS0_5queueERKNS0_13property_listENS0_6detail13code_locationE+0xc4>
  404004:	7100051f 	cmp	w8, #0x1
  404008:	540000a1 	b.ne	40401c <_ZN2cl4sycl13malloc_sharedIfEEPT_mRKNS0_5queueERKNS0_13property_listENS0_6detail13code_locationE+0xec>  // b.any
  40400c:	f9400288 	ldr	x8, [x20]
  404010:	aa1403e0 	mov	x0, x20
  404014:	f9400d08 	ldr	x8, [x8, #24]
  404018:	d63f0100 	blr	x8
  40401c:	f9400ff4 	ldr	x20, [sp, #24]
  404020:	b4000134 	cbz	x20, 404044 <_ZN2cl4sycl13malloc_sharedIfEEPT_mRKNS0_5queueERKNS0_13property_listENS0_6detail13code_locationE+0x114>
  404024:	91002288 	add	x8, x20, #0x8
  404028:	b40001b5 	cbz	x21, 40405c <_ZN2cl4sycl13malloc_sharedIfEEPT_mRKNS0_5queueERKNS0_13property_listENS0_6detail13code_locationE+0x12c>
  40402c:	885ffd09 	ldaxr	w9, [x8]
  404030:	5100052a 	sub	w10, w9, #0x1
  404034:	880bfd0a 	stlxr	w11, w10, [x8]
  404038:	35ffffab 	cbnz	w11, 40402c <_ZN2cl4sycl13malloc_sharedIfEEPT_mRKNS0_5queueERKNS0_13property_listENS0_6detail13code_locationE+0xfc>
  40403c:	7100053f 	cmp	w9, #0x1
  404040:	54000180 	b.eq	404070 <_ZN2cl4sycl13malloc_sharedIfEEPT_mRKNS0_5queueERKNS0_13property_listENS0_6detail13code_locationE+0x140>  // b.none
  404044:	aa1303e0 	mov	x0, x19
  404048:	a9464ff4 	ldp	x20, x19, [sp, #96]
  40404c:	a94557f6 	ldp	x22, x21, [sp, #80]
  404050:	a9447bfd 	ldp	x29, x30, [sp, #64]
  404054:	9101c3ff 	add	sp, sp, #0x70
  404058:	d65f03c0 	ret
  40405c:	b9400109 	ldr	w9, [x8]
  404060:	5100052a 	sub	w10, w9, #0x1
  404064:	b900010a 	str	w10, [x8]
  404068:	7100053f 	cmp	w9, #0x1
  40406c:	54fffec1 	b.ne	404044 <_ZN2cl4sycl13malloc_sharedIfEEPT_mRKNS0_5queueERKNS0_13property_listENS0_6detail13code_locationE+0x114>  // b.any
  404070:	aa1403f6 	mov	x22, x20
  404074:	aa1403e0 	mov	x0, x20
  404078:	f840c6c8 	ldr	x8, [x22], #12
  40407c:	f9400908 	ldr	x8, [x8, #16]
  404080:	d63f0100 	blr	x8
  404084:	b40001d5 	cbz	x21, 4040bc <_ZN2cl4sycl13malloc_sharedIfEEPT_mRKNS0_5queueERKNS0_13property_listENS0_6detail13code_locationE+0x18c>
  404088:	885ffec8 	ldaxr	w8, [x22]
  40408c:	51000509 	sub	w9, w8, #0x1
  404090:	880afec9 	stlxr	w10, w9, [x22]
  404094:	35ffffaa 	cbnz	w10, 404088 <_ZN2cl4sycl13malloc_sharedIfEEPT_mRKNS0_5queueERKNS0_13property_listENS0_6detail13code_locationE+0x158>
  404098:	7100051f 	cmp	w8, #0x1
  40409c:	54fffd41 	b.ne	404044 <_ZN2cl4sycl13malloc_sharedIfEEPT_mRKNS0_5queueERKNS0_13property_listENS0_6detail13code_locationE+0x114>  // b.any
  4040a0:	1400000c 	b	4040d0 <_ZN2cl4sycl13malloc_sharedIfEEPT_mRKNS0_5queueERKNS0_13property_listENS0_6detail13code_locationE+0x1a0>
  4040a4:	b94002c8 	ldr	w8, [x22]
  4040a8:	51000509 	sub	w9, w8, #0x1
  4040ac:	b90002c9 	str	w9, [x22]
  4040b0:	7100051f 	cmp	w8, #0x1
  4040b4:	54fffac0 	b.eq	40400c <_ZN2cl4sycl13malloc_sharedIfEEPT_mRKNS0_5queueERKNS0_13property_listENS0_6detail13code_locationE+0xdc>  // b.none
  4040b8:	17ffffd9 	b	40401c <_ZN2cl4sycl13malloc_sharedIfEEPT_mRKNS0_5queueERKNS0_13property_listENS0_6detail13code_locationE+0xec>
  4040bc:	b94002c8 	ldr	w8, [x22]
  4040c0:	51000509 	sub	w9, w8, #0x1
  4040c4:	b90002c9 	str	w9, [x22]
  4040c8:	7100051f 	cmp	w8, #0x1
  4040cc:	54fffbc1 	b.ne	404044 <_ZN2cl4sycl13malloc_sharedIfEEPT_mRKNS0_5queueERKNS0_13property_listENS0_6detail13code_locationE+0x114>  // b.any
  4040d0:	f9400288 	ldr	x8, [x20]
  4040d4:	aa1403e0 	mov	x0, x20
  4040d8:	f9400d08 	ldr	x8, [x8, #24]
  4040dc:	d63f0100 	blr	x8
  4040e0:	aa1303e0 	mov	x0, x19
  4040e4:	a9464ff4 	ldp	x20, x19, [sp, #96]
  4040e8:	a94557f6 	ldp	x22, x21, [sp, #80]
  4040ec:	a9447bfd 	ldp	x29, x30, [sp, #64]
  4040f0:	9101c3ff 	add	sp, sp, #0x70
  4040f4:	d65f03c0 	ret
  4040f8:	aa0003f3 	mov	x19, x0
  4040fc:	910003e0 	mov	x0, sp
  404100:	940000a0 	bl	404380 <_ZN2cl4sycl7contextD2Ev>
  404104:	14000002 	b	40410c <_ZN2cl4sycl13malloc_sharedIfEEPT_mRKNS0_5queueERKNS0_13property_listENS0_6detail13code_locationE+0x1dc>
  404108:	aa0003f3 	mov	x19, x0
  40410c:	910043e0 	add	x0, sp, #0x10
  404110:	9400006a 	bl	4042b8 <_ZN2cl4sycl6deviceD2Ev>
  404114:	aa1303e0 	mov	x0, x19
  404118:	97fff78e 	bl	401f50 <_Unwind_Resume@plt>

000000000040411c <_ZN2cl4sycl5eventD2Ev>:
  40411c:	a9bd7bfd 	stp	x29, x30, [sp, #-48]!
  404120:	f9000bf5 	str	x21, [sp, #16]
  404124:	a9024ff4 	stp	x20, x19, [sp, #32]
  404128:	910003fd 	mov	x29, sp
  40412c:	f9400413 	ldr	x19, [x0, #8]
  404130:	b4000533 	cbz	x19, 4041d4 <_ZN2cl4sycl5eventD2Ev+0xb8>
  404134:	f00000b4 	adrp	x20, 41b000 <GCC_except_table33+0xff8c>
  404138:	91002268 	add	x8, x19, #0x8
  40413c:	f947ea94 	ldr	x20, [x20, #4048]
  404140:	b4000114 	cbz	x20, 404160 <_ZN2cl4sycl5eventD2Ev+0x44>
  404144:	885ffd09 	ldaxr	w9, [x8]
  404148:	5100052a 	sub	w10, w9, #0x1
  40414c:	880bfd0a 	stlxr	w11, w10, [x8]
  404150:	35ffffab 	cbnz	w11, 404144 <_ZN2cl4sycl5eventD2Ev+0x28>
  404154:	7100053f 	cmp	w9, #0x1
  404158:	540000e0 	b.eq	404174 <_ZN2cl4sycl5eventD2Ev+0x58>  // b.none
  40415c:	1400001e 	b	4041d4 <_ZN2cl4sycl5eventD2Ev+0xb8>
  404160:	b9400109 	ldr	w9, [x8]
  404164:	5100052a 	sub	w10, w9, #0x1
  404168:	b900010a 	str	w10, [x8]
  40416c:	7100053f 	cmp	w9, #0x1
  404170:	54000321 	b.ne	4041d4 <_ZN2cl4sycl5eventD2Ev+0xb8>  // b.any
  404174:	aa1303f5 	mov	x21, x19
  404178:	aa1303e0 	mov	x0, x19
  40417c:	f840c6a8 	ldr	x8, [x21], #12
  404180:	f9400908 	ldr	x8, [x8, #16]
  404184:	d63f0100 	blr	x8
  404188:	b40001d4 	cbz	x20, 4041c0 <_ZN2cl4sycl5eventD2Ev+0xa4>
  40418c:	885ffea8 	ldaxr	w8, [x21]
  404190:	51000509 	sub	w9, w8, #0x1
  404194:	880afea9 	stlxr	w10, w9, [x21]
  404198:	35ffffaa 	cbnz	w10, 40418c <_ZN2cl4sycl5eventD2Ev+0x70>
  40419c:	7100051f 	cmp	w8, #0x1
  4041a0:	540001a1 	b.ne	4041d4 <_ZN2cl4sycl5eventD2Ev+0xb8>  // b.any
  4041a4:	f9400268 	ldr	x8, [x19]
  4041a8:	f9400d01 	ldr	x1, [x8, #24]
  4041ac:	aa1303e0 	mov	x0, x19
  4041b0:	a9424ff4 	ldp	x20, x19, [sp, #32]
  4041b4:	f9400bf5 	ldr	x21, [sp, #16]
  4041b8:	a8c37bfd 	ldp	x29, x30, [sp], #48
  4041bc:	d61f0020 	br	x1
  4041c0:	b94002a8 	ldr	w8, [x21]
  4041c4:	51000509 	sub	w9, w8, #0x1
  4041c8:	b90002a9 	str	w9, [x21]
  4041cc:	7100051f 	cmp	w8, #0x1
  4041d0:	54fffea0 	b.eq	4041a4 <_ZN2cl4sycl5eventD2Ev+0x88>  // b.none
  4041d4:	a9424ff4 	ldp	x20, x19, [sp, #32]
  4041d8:	f9400bf5 	ldr	x21, [sp, #16]
  4041dc:	a8c37bfd 	ldp	x29, x30, [sp], #48
  4041e0:	d65f03c0 	ret

00000000004041e4 <_ZN2cl4sycl5queueD2Ev>:
  4041e4:	a9bd7bfd 	stp	x29, x30, [sp, #-48]!
  4041e8:	f9000bf5 	str	x21, [sp, #16]
  4041ec:	a9024ff4 	stp	x20, x19, [sp, #32]
  4041f0:	910003fd 	mov	x29, sp
  4041f4:	f9400413 	ldr	x19, [x0, #8]
  4041f8:	b4000533 	cbz	x19, 40429c <_ZN2cl4sycl5queueD2Ev+0xb8>
  4041fc:	f00000b4 	adrp	x20, 41b000 <GCC_except_table33+0xff8c>
  404200:	91002268 	add	x8, x19, #0x8
  404204:	f947ea94 	ldr	x20, [x20, #4048]
  404208:	b4000114 	cbz	x20, 404228 <_ZN2cl4sycl5queueD2Ev+0x44>
  40420c:	885ffd09 	ldaxr	w9, [x8]
  404210:	5100052a 	sub	w10, w9, #0x1
  404214:	880bfd0a 	stlxr	w11, w10, [x8]
  404218:	35ffffab 	cbnz	w11, 40420c <_ZN2cl4sycl5queueD2Ev+0x28>
  40421c:	7100053f 	cmp	w9, #0x1
  404220:	540000e0 	b.eq	40423c <_ZN2cl4sycl5queueD2Ev+0x58>  // b.none
  404224:	1400001e 	b	40429c <_ZN2cl4sycl5queueD2Ev+0xb8>
  404228:	b9400109 	ldr	w9, [x8]
  40422c:	5100052a 	sub	w10, w9, #0x1
  404230:	b900010a 	str	w10, [x8]
  404234:	7100053f 	cmp	w9, #0x1
  404238:	54000321 	b.ne	40429c <_ZN2cl4sycl5queueD2Ev+0xb8>  // b.any
  40423c:	aa1303f5 	mov	x21, x19
  404240:	aa1303e0 	mov	x0, x19
  404244:	f840c6a8 	ldr	x8, [x21], #12
  404248:	f9400908 	ldr	x8, [x8, #16]
  40424c:	d63f0100 	blr	x8
  404250:	b40001d4 	cbz	x20, 404288 <_ZN2cl4sycl5queueD2Ev+0xa4>
  404254:	885ffea8 	ldaxr	w8, [x21]
  404258:	51000509 	sub	w9, w8, #0x1
  40425c:	880afea9 	stlxr	w10, w9, [x21]
  404260:	35ffffaa 	cbnz	w10, 404254 <_ZN2cl4sycl5queueD2Ev+0x70>
  404264:	7100051f 	cmp	w8, #0x1
  404268:	540001a1 	b.ne	40429c <_ZN2cl4sycl5queueD2Ev+0xb8>  // b.any
  40426c:	f9400268 	ldr	x8, [x19]
  404270:	f9400d01 	ldr	x1, [x8, #24]
  404274:	aa1303e0 	mov	x0, x19
  404278:	a9424ff4 	ldp	x20, x19, [sp, #32]
  40427c:	f9400bf5 	ldr	x21, [sp, #16]
  404280:	a8c37bfd 	ldp	x29, x30, [sp], #48
  404284:	d61f0020 	br	x1
  404288:	b94002a8 	ldr	w8, [x21]
  40428c:	51000509 	sub	w9, w8, #0x1
  404290:	b90002a9 	str	w9, [x21]
  404294:	7100051f 	cmp	w8, #0x1
  404298:	54fffea0 	b.eq	40426c <_ZN2cl4sycl5queueD2Ev+0x88>  // b.none
  40429c:	a9424ff4 	ldp	x20, x19, [sp, #32]
  4042a0:	f9400bf5 	ldr	x21, [sp, #16]
  4042a4:	a8c37bfd 	ldp	x29, x30, [sp], #48
  4042a8:	d65f03c0 	ret

00000000004042ac <__clang_call_terminate>:
  4042ac:	f81f0ffe 	str	x30, [sp, #-16]!
  4042b0:	97fff684 	bl	401cc0 <__cxa_begin_catch@plt>
  4042b4:	97fff66b 	bl	401c60 <_ZSt9terminatev@plt>

00000000004042b8 <_ZN2cl4sycl6deviceD2Ev>:
  4042b8:	a9bd7bfd 	stp	x29, x30, [sp, #-48]!
  4042bc:	f9000bf5 	str	x21, [sp, #16]
  4042c0:	a9024ff4 	stp	x20, x19, [sp, #32]
  4042c4:	910003fd 	mov	x29, sp
  4042c8:	f9400413 	ldr	x19, [x0, #8]
  4042cc:	b4000533 	cbz	x19, 404370 <_ZN2cl4sycl6deviceD2Ev+0xb8>
  4042d0:	f00000b4 	adrp	x20, 41b000 <GCC_except_table33+0xff8c>
  4042d4:	91002268 	add	x8, x19, #0x8
  4042d8:	f947ea94 	ldr	x20, [x20, #4048]
  4042dc:	b4000114 	cbz	x20, 4042fc <_ZN2cl4sycl6deviceD2Ev+0x44>
  4042e0:	885ffd09 	ldaxr	w9, [x8]
  4042e4:	5100052a 	sub	w10, w9, #0x1
  4042e8:	880bfd0a 	stlxr	w11, w10, [x8]
  4042ec:	35ffffab 	cbnz	w11, 4042e0 <_ZN2cl4sycl6deviceD2Ev+0x28>
  4042f0:	7100053f 	cmp	w9, #0x1
  4042f4:	540000e0 	b.eq	404310 <_ZN2cl4sycl6deviceD2Ev+0x58>  // b.none
  4042f8:	1400001e 	b	404370 <_ZN2cl4sycl6deviceD2Ev+0xb8>
  4042fc:	b9400109 	ldr	w9, [x8]
  404300:	5100052a 	sub	w10, w9, #0x1
  404304:	b900010a 	str	w10, [x8]
  404308:	7100053f 	cmp	w9, #0x1
  40430c:	54000321 	b.ne	404370 <_ZN2cl4sycl6deviceD2Ev+0xb8>  // b.any
  404310:	aa1303f5 	mov	x21, x19
  404314:	aa1303e0 	mov	x0, x19
  404318:	f840c6a8 	ldr	x8, [x21], #12
  40431c:	f9400908 	ldr	x8, [x8, #16]
  404320:	d63f0100 	blr	x8
  404324:	b40001d4 	cbz	x20, 40435c <_ZN2cl4sycl6deviceD2Ev+0xa4>
  404328:	885ffea8 	ldaxr	w8, [x21]
  40432c:	51000509 	sub	w9, w8, #0x1
  404330:	880afea9 	stlxr	w10, w9, [x21]
  404334:	35ffffaa 	cbnz	w10, 404328 <_ZN2cl4sycl6deviceD2Ev+0x70>
  404338:	7100051f 	cmp	w8, #0x1
  40433c:	540001a1 	b.ne	404370 <_ZN2cl4sycl6deviceD2Ev+0xb8>  // b.any
  404340:	f9400268 	ldr	x8, [x19]
  404344:	f9400d01 	ldr	x1, [x8, #24]
  404348:	aa1303e0 	mov	x0, x19
  40434c:	a9424ff4 	ldp	x20, x19, [sp, #32]
  404350:	f9400bf5 	ldr	x21, [sp, #16]
  404354:	a8c37bfd 	ldp	x29, x30, [sp], #48
  404358:	d61f0020 	br	x1
  40435c:	b94002a8 	ldr	w8, [x21]
  404360:	51000509 	sub	w9, w8, #0x1
  404364:	b90002a9 	str	w9, [x21]
  404368:	7100051f 	cmp	w8, #0x1
  40436c:	54fffea0 	b.eq	404340 <_ZN2cl4sycl6deviceD2Ev+0x88>  // b.none
  404370:	a9424ff4 	ldp	x20, x19, [sp, #32]
  404374:	f9400bf5 	ldr	x21, [sp, #16]
  404378:	a8c37bfd 	ldp	x29, x30, [sp], #48
  40437c:	d65f03c0 	ret

0000000000404380 <_ZN2cl4sycl7contextD2Ev>:
  404380:	a9bd7bfd 	stp	x29, x30, [sp, #-48]!
  404384:	f9000bf5 	str	x21, [sp, #16]
  404388:	a9024ff4 	stp	x20, x19, [sp, #32]
  40438c:	910003fd 	mov	x29, sp
  404390:	f9400413 	ldr	x19, [x0, #8]
  404394:	b4000533 	cbz	x19, 404438 <_ZN2cl4sycl7contextD2Ev+0xb8>
  404398:	f00000b4 	adrp	x20, 41b000 <GCC_except_table33+0xff8c>
  40439c:	91002268 	add	x8, x19, #0x8
  4043a0:	f947ea94 	ldr	x20, [x20, #4048]
  4043a4:	b4000114 	cbz	x20, 4043c4 <_ZN2cl4sycl7contextD2Ev+0x44>
  4043a8:	885ffd09 	ldaxr	w9, [x8]
  4043ac:	5100052a 	sub	w10, w9, #0x1
  4043b0:	880bfd0a 	stlxr	w11, w10, [x8]
  4043b4:	35ffffab 	cbnz	w11, 4043a8 <_ZN2cl4sycl7contextD2Ev+0x28>
  4043b8:	7100053f 	cmp	w9, #0x1
  4043bc:	540000e0 	b.eq	4043d8 <_ZN2cl4sycl7contextD2Ev+0x58>  // b.none
  4043c0:	1400001e 	b	404438 <_ZN2cl4sycl7contextD2Ev+0xb8>
  4043c4:	b9400109 	ldr	w9, [x8]
  4043c8:	5100052a 	sub	w10, w9, #0x1
  4043cc:	b900010a 	str	w10, [x8]
  4043d0:	7100053f 	cmp	w9, #0x1
  4043d4:	54000321 	b.ne	404438 <_ZN2cl4sycl7contextD2Ev+0xb8>  // b.any
  4043d8:	aa1303f5 	mov	x21, x19
  4043dc:	aa1303e0 	mov	x0, x19
  4043e0:	f840c6a8 	ldr	x8, [x21], #12
  4043e4:	f9400908 	ldr	x8, [x8, #16]
  4043e8:	d63f0100 	blr	x8
  4043ec:	b40001d4 	cbz	x20, 404424 <_ZN2cl4sycl7contextD2Ev+0xa4>
  4043f0:	885ffea8 	ldaxr	w8, [x21]
  4043f4:	51000509 	sub	w9, w8, #0x1
  4043f8:	880afea9 	stlxr	w10, w9, [x21]
  4043fc:	35ffffaa 	cbnz	w10, 4043f0 <_ZN2cl4sycl7contextD2Ev+0x70>
  404400:	7100051f 	cmp	w8, #0x1
  404404:	540001a1 	b.ne	404438 <_ZN2cl4sycl7contextD2Ev+0xb8>  // b.any
  404408:	f9400268 	ldr	x8, [x19]
  40440c:	f9400d01 	ldr	x1, [x8, #24]
  404410:	aa1303e0 	mov	x0, x19
  404414:	a9424ff4 	ldp	x20, x19, [sp, #32]
  404418:	f9400bf5 	ldr	x21, [sp, #16]
  40441c:	a8c37bfd 	ldp	x29, x30, [sp], #48
  404420:	d61f0020 	br	x1
  404424:	b94002a8 	ldr	w8, [x21]
  404428:	51000509 	sub	w9, w8, #0x1
  40442c:	b90002a9 	str	w9, [x21]
  404430:	7100051f 	cmp	w8, #0x1
  404434:	54fffea0 	b.eq	404408 <_ZN2cl4sycl7contextD2Ev+0x88>  // b.none
  404438:	a9424ff4 	ldp	x20, x19, [sp, #32]
  40443c:	f9400bf5 	ldr	x21, [sp, #16]
  404440:	a8c37bfd 	ldp	x29, x30, [sp], #48
  404444:	d65f03c0 	ret

0000000000404448 <_ZN2cl4sycl6detail15checkValueRangeILi2ENS0_5rangeILi2EEEEENSt9enable_ifIXoosr3std7is_sameIT0_NS3_IXT_EEEEE5valuesr3std7is_sameIS6_NS0_2idIXT_EEEEE5valueEvE4typeERKS6_>:
  404448:	a9be7bfd 	stp	x29, x30, [sp, #-32]!
  40444c:	a9014ff4 	stp	x20, x19, [sp, #16]
  404450:	910003fd 	mov	x29, sp
  404454:	f9400008 	ldr	x8, [x0]
  404458:	d35ffd09 	lsr	x9, x8, #31
  40445c:	b5000149 	cbnz	x9, 404484 <_ZN2cl4sycl6detail15checkValueRangeILi2ENS0_5rangeILi2EEEEENSt9enable_ifIXoosr3std7is_sameIT0_NS3_IXT_EEEEE5valuesr3std7is_sameIS6_NS0_2idIXT_EEEEE5valueEvE4typeERKS6_+0x3c>
  404460:	f9400409 	ldr	x9, [x0, #8]
  404464:	d35ffd2a 	lsr	x10, x9, #31
  404468:	b50000ea 	cbnz	x10, 404484 <_ZN2cl4sycl6detail15checkValueRangeILi2ENS0_5rangeILi2EEEEENSt9enable_ifIXoosr3std7is_sameIT0_NS3_IXT_EEEEE5valuesr3std7is_sameIS6_NS0_2idIXT_EEEEE5valueEvE4typeERKS6_+0x3c>
  40446c:	9b087d28 	mul	x8, x9, x8
  404470:	d35ffd08 	lsr	x8, x8, #31
  404474:	b5000188 	cbnz	x8, 4044a4 <_ZN2cl4sycl6detail15checkValueRangeILi2ENS0_5rangeILi2EEEEENSt9enable_ifIXoosr3std7is_sameIT0_NS3_IXT_EEEEE5valuesr3std7is_sameIS6_NS0_2idIXT_EEEEE5valueEvE4typeERKS6_+0x5c>
  404478:	a9414ff4 	ldp	x20, x19, [sp, #16]
  40447c:	a8c27bfd 	ldp	x29, x30, [sp], #32
  404480:	d65f03c0 	ret
  404484:	52800800 	mov	w0, #0x40                  	// #64
  404488:	97fff61a 	bl	401cf0 <__cxa_allocate_exception@plt>
  40448c:	aa0003f3 	mov	x19, x0
  404490:	d0000001 	adrp	x1, 406000 <_IO_stdin_used+0xa0>
  404494:	910dbc21 	add	x1, x1, #0x36f
  404498:	128003a2 	mov	w2, #0xffffffe2            	// #-30
  40449c:	94000015 	bl	4044f0 <_ZN2cl4sycl13runtime_errorC2EPKci>
  4044a0:	14000008 	b	4044c0 <_ZN2cl4sycl6detail15checkValueRangeILi2ENS0_5rangeILi2EEEEENSt9enable_ifIXoosr3std7is_sameIT0_NS3_IXT_EEEEE5valuesr3std7is_sameIS6_NS0_2idIXT_EEEEE5valueEvE4typeERKS6_+0x78>
  4044a4:	52800800 	mov	w0, #0x40                  	// #64
  4044a8:	97fff612 	bl	401cf0 <__cxa_allocate_exception@plt>
  4044ac:	aa0003f3 	mov	x19, x0
  4044b0:	d0000001 	adrp	x1, 406000 <_IO_stdin_used+0xa0>
  4044b4:	910dbc21 	add	x1, x1, #0x36f
  4044b8:	128003a2 	mov	w2, #0xffffffe2            	// #-30
  4044bc:	9400000d 	bl	4044f0 <_ZN2cl4sycl13runtime_errorC2EPKci>
  4044c0:	d0000001 	adrp	x1, 406000 <_IO_stdin_used+0xa0>
  4044c4:	91166021 	add	x1, x1, #0x598
  4044c8:	90000002 	adrp	x2, 404000 <_ZN2cl4sycl13malloc_sharedIfEEPT_mRKNS0_5queueERKNS0_13property_listENS0_6detail13code_locationE+0xd0>
  4044cc:	911b3042 	add	x2, x2, #0x6cc
  4044d0:	aa1303e0 	mov	x0, x19
  4044d4:	97fff693 	bl	401f20 <__cxa_throw@plt>
  4044d8:	14000001 	b	4044dc <_ZN2cl4sycl6detail15checkValueRangeILi2ENS0_5rangeILi2EEEEENSt9enable_ifIXoosr3std7is_sameIT0_NS3_IXT_EEEEE5valuesr3std7is_sameIS6_NS0_2idIXT_EEEEE5valueEvE4typeERKS6_+0x94>
  4044dc:	aa0003f4 	mov	x20, x0
  4044e0:	aa1303e0 	mov	x0, x19
  4044e4:	97fff627 	bl	401d80 <__cxa_free_exception@plt>
  4044e8:	aa1403e0 	mov	x0, x20
  4044ec:	97fff699 	bl	401f50 <_Unwind_Resume@plt>

00000000004044f0 <_ZN2cl4sycl13runtime_errorC2EPKci>:
  4044f0:	d101c3ff 	sub	sp, sp, #0x70
  4044f4:	a9037bfd 	stp	x29, x30, [sp, #48]
  4044f8:	f90023f7 	str	x23, [sp, #64]
  4044fc:	a90557f6 	stp	x22, x21, [sp, #80]
  404500:	a9064ff4 	stp	x20, x19, [sp, #96]
  404504:	9100c3fd 	add	x29, sp, #0x30
  404508:	910003e8 	mov	x8, sp
  40450c:	91004117 	add	x23, x8, #0x10
  404510:	f90003f7 	str	x23, [sp]
  404514:	b4000c41 	cbz	x1, 40469c <_ZN2cl4sycl13runtime_errorC2EPKci+0x1ac>
  404518:	aa0003f3 	mov	x19, x0
  40451c:	aa0103e0 	mov	x0, x1
  404520:	2a0203f4 	mov	w20, w2
  404524:	aa0103f5 	mov	x21, x1
  404528:	97fff5d6 	bl	401c80 <strlen@plt>
  40452c:	aa0003f6 	mov	x22, x0
  404530:	f100401f 	cmp	x0, #0x10
  404534:	f81f03a0 	stur	x0, [x29, #-16]
  404538:	54000143 	b.cc	404560 <_ZN2cl4sycl13runtime_errorC2EPKci+0x70>  // b.lo, b.ul, b.last
  40453c:	910003e0 	mov	x0, sp
  404540:	d10043a1 	sub	x1, x29, #0x10
  404544:	aa1f03e2 	mov	x2, xzr
  404548:	97fff686 	bl	401f60 <_ZNSt7__cxx1112basic_stringIcSt11char_traitsIcESaIcEE9_M_createERmm@plt>
  40454c:	f85f03a8 	ldur	x8, [x29, #-16]
  404550:	f90003e0 	str	x0, [sp]
  404554:	f9000be8 	str	x8, [sp, #16]
  404558:	b5000096 	cbnz	x22, 404568 <_ZN2cl4sycl13runtime_errorC2EPKci+0x78>
  40455c:	1400000b 	b	404588 <_ZN2cl4sycl13runtime_errorC2EPKci+0x98>
  404560:	aa1703e0 	mov	x0, x23
  404564:	b4000136 	cbz	x22, 404588 <_ZN2cl4sycl13runtime_errorC2EPKci+0x98>
  404568:	f10006df 	cmp	x22, #0x1
  40456c:	54000081 	b.ne	40457c <_ZN2cl4sycl13runtime_errorC2EPKci+0x8c>  // b.any
  404570:	394002a8 	ldrb	w8, [x21]
  404574:	39000008 	strb	w8, [x0]
  404578:	14000004 	b	404588 <_ZN2cl4sycl13runtime_errorC2EPKci+0x98>
  40457c:	aa1503e1 	mov	x1, x21
  404580:	aa1603e2 	mov	x2, x22
  404584:	97fff5a7 	bl	401c20 <memcpy@plt>
  404588:	f85f03a8 	ldur	x8, [x29, #-16]
  40458c:	52800020 	mov	w0, #0x1                   	// #1
  404590:	f94003e9 	ldr	x9, [sp]
  404594:	f90007e8 	str	x8, [sp, #8]
  404598:	3828693f 	strb	wzr, [x9, x8]
  40459c:	97fff5c5 	bl	401cb0 <_ZN2cl4sycl15make_error_codeENS0_4errcE@plt>
  4045a0:	aa0003e2 	mov	x2, x0
  4045a4:	aa0103e4 	mov	x4, x1
  4045a8:	a93f7fbf 	stp	xzr, xzr, [x29, #-16]
  4045ac:	910003e3 	mov	x3, sp
  4045b0:	d10043a5 	sub	x5, x29, #0x10
  4045b4:	aa1303e0 	mov	x0, x19
  4045b8:	aa0203e1 	mov	x1, x2
  4045bc:	aa0403e2 	mov	x2, x4
  4045c0:	2a1403e4 	mov	w4, w20
  4045c4:	9400007c 	bl	4047b4 <_ZN2cl4sycl9exceptionC2ESt10error_codeRKNSt7__cxx1112basic_stringIcSt11char_traitsIcESaIcEEEiSt10shared_ptrINS0_7contextEE>
  4045c8:	f85f83b4 	ldur	x20, [x29, #-8]
  4045cc:	b4000434 	cbz	x20, 404650 <_ZN2cl4sycl13runtime_errorC2EPKci+0x160>
  4045d0:	f00000b5 	adrp	x21, 41b000 <GCC_except_table33+0xff8c>
  4045d4:	91002288 	add	x8, x20, #0x8
  4045d8:	f947eab5 	ldr	x21, [x21, #4048]
  4045dc:	b4000115 	cbz	x21, 4045fc <_ZN2cl4sycl13runtime_errorC2EPKci+0x10c>
  4045e0:	885ffd09 	ldaxr	w9, [x8]
  4045e4:	5100052a 	sub	w10, w9, #0x1
  4045e8:	880bfd0a 	stlxr	w11, w10, [x8]
  4045ec:	35ffffab 	cbnz	w11, 4045e0 <_ZN2cl4sycl13runtime_errorC2EPKci+0xf0>
  4045f0:	7100053f 	cmp	w9, #0x1
  4045f4:	540000e0 	b.eq	404610 <_ZN2cl4sycl13runtime_errorC2EPKci+0x120>  // b.none
  4045f8:	14000016 	b	404650 <_ZN2cl4sycl13runtime_errorC2EPKci+0x160>
  4045fc:	b9400109 	ldr	w9, [x8]
  404600:	5100052a 	sub	w10, w9, #0x1
  404604:	b900010a 	str	w10, [x8]
  404608:	7100053f 	cmp	w9, #0x1
  40460c:	54000221 	b.ne	404650 <_ZN2cl4sycl13runtime_errorC2EPKci+0x160>  // b.any
  404610:	aa1403f6 	mov	x22, x20
  404614:	aa1403e0 	mov	x0, x20
  404618:	f840c6c8 	ldr	x8, [x22], #12
  40461c:	f9400908 	ldr	x8, [x8, #16]
  404620:	d63f0100 	blr	x8
  404624:	b4000315 	cbz	x21, 404684 <_ZN2cl4sycl13runtime_errorC2EPKci+0x194>
  404628:	885ffec8 	ldaxr	w8, [x22]
  40462c:	51000509 	sub	w9, w8, #0x1
  404630:	880afec9 	stlxr	w10, w9, [x22]
  404634:	35ffffaa 	cbnz	w10, 404628 <_ZN2cl4sycl13runtime_errorC2EPKci+0x138>
  404638:	7100051f 	cmp	w8, #0x1
  40463c:	540000a1 	b.ne	404650 <_ZN2cl4sycl13runtime_errorC2EPKci+0x160>  // b.any
  404640:	f9400288 	ldr	x8, [x20]
  404644:	aa1403e0 	mov	x0, x20
  404648:	f9400d08 	ldr	x8, [x8, #24]
  40464c:	d63f0100 	blr	x8
  404650:	f94003e0 	ldr	x0, [sp]
  404654:	d0000008 	adrp	x8, 406000 <_IO_stdin_used+0xa0>
  404658:	91170108 	add	x8, x8, #0x5c0
  40465c:	eb17001f 	cmp	x0, x23
  404660:	f9000268 	str	x8, [x19]
  404664:	54000040 	b.eq	40466c <_ZN2cl4sycl13runtime_errorC2EPKci+0x17c>  // b.none
  404668:	97fff5d2 	bl	401db0 <_ZdlPv@plt>
  40466c:	a9464ff4 	ldp	x20, x19, [sp, #96]
  404670:	a94557f6 	ldp	x22, x21, [sp, #80]
  404674:	a9437bfd 	ldp	x29, x30, [sp, #48]
  404678:	f94023f7 	ldr	x23, [sp, #64]
  40467c:	9101c3ff 	add	sp, sp, #0x70
  404680:	d65f03c0 	ret
  404684:	b94002c8 	ldr	w8, [x22]
  404688:	51000509 	sub	w9, w8, #0x1
  40468c:	b90002c9 	str	w9, [x22]
  404690:	7100051f 	cmp	w8, #0x1
  404694:	54fffd60 	b.eq	404640 <_ZN2cl4sycl13runtime_errorC2EPKci+0x150>  // b.none
  404698:	17ffffee 	b	404650 <_ZN2cl4sycl13runtime_errorC2EPKci+0x160>
  40469c:	d0000000 	adrp	x0, 406000 <_IO_stdin_used+0xa0>
  4046a0:	910b5800 	add	x0, x0, #0x2d6
  4046a4:	97fff5b3 	bl	401d70 <_ZSt19__throw_logic_errorPKc@plt>
  4046a8:	aa0003f3 	mov	x19, x0
  4046ac:	d10043a0 	sub	x0, x29, #0x10
  4046b0:	940001a3 	bl	404d3c <_ZNSt12__shared_ptrIN2cl4sycl7contextELN9__gnu_cxx12_Lock_policyE2EED2Ev>
  4046b4:	f94003e0 	ldr	x0, [sp]
  4046b8:	eb17001f 	cmp	x0, x23
  4046bc:	54000040 	b.eq	4046c4 <_ZN2cl4sycl13runtime_errorC2EPKci+0x1d4>  // b.none
  4046c0:	97fff5bc 	bl	401db0 <_ZdlPv@plt>
  4046c4:	aa1303e0 	mov	x0, x19
  4046c8:	97fff622 	bl	401f50 <_Unwind_Resume@plt>

00000000004046cc <_ZN2cl4sycl9exceptionD2Ev>:
  4046cc:	a9bd7bfd 	stp	x29, x30, [sp, #-48]!
  4046d0:	a90157f6 	stp	x22, x21, [sp, #16]
  4046d4:	a9024ff4 	stp	x20, x19, [sp, #32]
  4046d8:	910003fd 	mov	x29, sp
  4046dc:	aa0003f3 	mov	x19, x0
  4046e0:	f9401c14 	ldr	x20, [x0, #56]
  4046e4:	f00000a8 	adrp	x8, 41b000 <GCC_except_table33+0xff8c>
  4046e8:	91354108 	add	x8, x8, #0xd50
  4046ec:	f9000008 	str	x8, [x0]
  4046f0:	b4000434 	cbz	x20, 404774 <_ZN2cl4sycl9exceptionD2Ev+0xa8>
  4046f4:	f00000b5 	adrp	x21, 41b000 <GCC_except_table33+0xff8c>
  4046f8:	91002288 	add	x8, x20, #0x8
  4046fc:	f947eab5 	ldr	x21, [x21, #4048]
  404700:	b4000115 	cbz	x21, 404720 <_ZN2cl4sycl9exceptionD2Ev+0x54>
  404704:	885ffd09 	ldaxr	w9, [x8]
  404708:	5100052a 	sub	w10, w9, #0x1
  40470c:	880bfd0a 	stlxr	w11, w10, [x8]
  404710:	35ffffab 	cbnz	w11, 404704 <_ZN2cl4sycl9exceptionD2Ev+0x38>
  404714:	7100053f 	cmp	w9, #0x1
  404718:	540000e0 	b.eq	404734 <_ZN2cl4sycl9exceptionD2Ev+0x68>  // b.none
  40471c:	14000016 	b	404774 <_ZN2cl4sycl9exceptionD2Ev+0xa8>
  404720:	b9400109 	ldr	w9, [x8]
  404724:	5100052a 	sub	w10, w9, #0x1
  404728:	b900010a 	str	w10, [x8]
  40472c:	7100053f 	cmp	w9, #0x1
  404730:	54000221 	b.ne	404774 <_ZN2cl4sycl9exceptionD2Ev+0xa8>  // b.any
  404734:	aa1403f6 	mov	x22, x20
  404738:	aa1403e0 	mov	x0, x20
  40473c:	f840c6c8 	ldr	x8, [x22], #12
  404740:	f9400908 	ldr	x8, [x8, #16]
  404744:	d63f0100 	blr	x8
  404748:	b40002b5 	cbz	x21, 40479c <_ZN2cl4sycl9exceptionD2Ev+0xd0>
  40474c:	885ffec8 	ldaxr	w8, [x22]
  404750:	51000509 	sub	w9, w8, #0x1
  404754:	880afec9 	stlxr	w10, w9, [x22]
  404758:	35ffffaa 	cbnz	w10, 40474c <_ZN2cl4sycl9exceptionD2Ev+0x80>
  40475c:	7100051f 	cmp	w8, #0x1
  404760:	540000a1 	b.ne	404774 <_ZN2cl4sycl9exceptionD2Ev+0xa8>  // b.any
  404764:	f9400288 	ldr	x8, [x20]
  404768:	aa1403e0 	mov	x0, x20
  40476c:	f9400d08 	ldr	x8, [x8, #24]
  404770:	d63f0100 	blr	x8
  404774:	f9400660 	ldr	x0, [x19, #8]
  404778:	91006268 	add	x8, x19, #0x18
  40477c:	eb08001f 	cmp	x0, x8
  404780:	54000040 	b.eq	404788 <_ZN2cl4sycl9exceptionD2Ev+0xbc>  // b.none
  404784:	97fff58b 	bl	401db0 <_ZdlPv@plt>
  404788:	aa1303e0 	mov	x0, x19
  40478c:	a9424ff4 	ldp	x20, x19, [sp, #32]
  404790:	a94157f6 	ldp	x22, x21, [sp, #16]
  404794:	a8c37bfd 	ldp	x29, x30, [sp], #48
  404798:	17fff5f6 	b	401f70 <_ZNSt9exceptionD2Ev@plt>
  40479c:	b94002c8 	ldr	w8, [x22]
  4047a0:	51000509 	sub	w9, w8, #0x1
  4047a4:	b90002c9 	str	w9, [x22]
  4047a8:	7100051f 	cmp	w8, #0x1
  4047ac:	54fffdc0 	b.eq	404764 <_ZN2cl4sycl9exceptionD2Ev+0x98>  // b.none
  4047b0:	17fffff1 	b	404774 <_ZN2cl4sycl9exceptionD2Ev+0xa8>

00000000004047b4 <_ZN2cl4sycl9exceptionC2ESt10error_codeRKNSt7__cxx1112basic_stringIcSt11char_traitsIcESaIcEEEiSt10shared_ptrINS0_7contextEE>:
  4047b4:	d104c3ff 	sub	sp, sp, #0x130
  4047b8:	a90d7bfd 	stp	x29, x30, [sp, #208]
  4047bc:	a90e6ffc 	stp	x28, x27, [sp, #224]
  4047c0:	a90f67fa 	stp	x26, x25, [sp, #240]
  4047c4:	a9105ff8 	stp	x24, x23, [sp, #256]
  4047c8:	a91157f6 	stp	x22, x21, [sp, #272]
  4047cc:	a9124ff4 	stp	x20, x19, [sp, #288]
  4047d0:	910343fd 	add	x29, sp, #0xd0
  4047d4:	f00000ba 	adrp	x26, 41b000 <GCC_except_table33+0xff8c>
  4047d8:	2a0403f3 	mov	w19, w4
  4047dc:	a94020a9 	ldp	x9, x8, [x5]
  4047e0:	aa0203f5 	mov	x21, x2
  4047e4:	aa0103f6 	mov	x22, x1
  4047e8:	aa0003f4 	mov	x20, x0
  4047ec:	f947eb5a 	ldr	x26, [x26, #4048]
  4047f0:	a90623e9 	stp	x9, x8, [sp, #96]
  4047f4:	b4000168 	cbz	x8, 404820 <_ZN2cl4sycl9exceptionC2ESt10error_codeRKNSt7__cxx1112basic_stringIcSt11char_traitsIcESaIcEEEiSt10shared_ptrINS0_7contextEE+0x6c>
  4047f8:	91002108 	add	x8, x8, #0x8
  4047fc:	b40000da 	cbz	x26, 404814 <_ZN2cl4sycl9exceptionC2ESt10error_codeRKNSt7__cxx1112basic_stringIcSt11char_traitsIcESaIcEEEiSt10shared_ptrINS0_7contextEE+0x60>
  404800:	885ffd09 	ldaxr	w9, [x8]
  404804:	11000529 	add	w9, w9, #0x1
  404808:	880afd09 	stlxr	w10, w9, [x8]
  40480c:	35ffffaa 	cbnz	w10, 404800 <_ZN2cl4sycl9exceptionC2ESt10error_codeRKNSt7__cxx1112basic_stringIcSt11char_traitsIcESaIcEEEiSt10shared_ptrINS0_7contextEE+0x4c>
  404810:	14000004 	b	404820 <_ZN2cl4sycl9exceptionC2ESt10error_codeRKNSt7__cxx1112basic_stringIcSt11char_traitsIcESaIcEEEiSt10shared_ptrINS0_7contextEE+0x6c>
  404814:	b9400109 	ldr	w9, [x8]
  404818:	11000529 	add	w9, w9, #0x1
  40481c:	b9000109 	str	w9, [x8]
  404820:	a9405c78 	ldp	x24, x23, [x3]
  404824:	910083e8 	add	x8, sp, #0x20
  404828:	91004119 	add	x25, x8, #0x10
  40482c:	f1003eff 	cmp	x23, #0xf
  404830:	f90013f9 	str	x25, [sp, #32]
  404834:	f81e03b7 	stur	x23, [x29, #-32]
  404838:	54000149 	b.ls	404860 <_ZN2cl4sycl9exceptionC2ESt10error_codeRKNSt7__cxx1112basic_stringIcSt11char_traitsIcESaIcEEEiSt10shared_ptrINS0_7contextEE+0xac>  // b.plast
  40483c:	910083e0 	add	x0, sp, #0x20
  404840:	d10083a1 	sub	x1, x29, #0x20
  404844:	aa1f03e2 	mov	x2, xzr
  404848:	97fff5c6 	bl	401f60 <_ZNSt7__cxx1112basic_stringIcSt11char_traitsIcESaIcEE9_M_createERmm@plt>
  40484c:	f85e03a8 	ldur	x8, [x29, #-32]
  404850:	f90013e0 	str	x0, [sp, #32]
  404854:	f9001be8 	str	x8, [sp, #48]
  404858:	b5000097 	cbnz	x23, 404868 <_ZN2cl4sycl9exceptionC2ESt10error_codeRKNSt7__cxx1112basic_stringIcSt11char_traitsIcESaIcEEEiSt10shared_ptrINS0_7contextEE+0xb4>
  40485c:	1400000b 	b	404888 <_ZN2cl4sycl9exceptionC2ESt10error_codeRKNSt7__cxx1112basic_stringIcSt11char_traitsIcESaIcEEEiSt10shared_ptrINS0_7contextEE+0xd4>
  404860:	aa1903e0 	mov	x0, x25
  404864:	b4000137 	cbz	x23, 404888 <_ZN2cl4sycl9exceptionC2ESt10error_codeRKNSt7__cxx1112basic_stringIcSt11char_traitsIcESaIcEEEiSt10shared_ptrINS0_7contextEE+0xd4>
  404868:	f10006ff 	cmp	x23, #0x1
  40486c:	54000081 	b.ne	40487c <_ZN2cl4sycl9exceptionC2ESt10error_codeRKNSt7__cxx1112basic_stringIcSt11char_traitsIcESaIcEEEiSt10shared_ptrINS0_7contextEE+0xc8>  // b.any
  404870:	39400308 	ldrb	w8, [x24]
  404874:	39000008 	strb	w8, [x0]
  404878:	14000004 	b	404888 <_ZN2cl4sycl9exceptionC2ESt10error_codeRKNSt7__cxx1112basic_stringIcSt11char_traitsIcESaIcEEEiSt10shared_ptrINS0_7contextEE+0xd4>
  40487c:	aa1803e1 	mov	x1, x24
  404880:	aa1703e2 	mov	x2, x23
  404884:	97fff4e7 	bl	401c20 <memcpy@plt>
  404888:	f85e03a8 	ldur	x8, [x29, #-32]
  40488c:	f94013e9 	ldr	x9, [sp, #32]
  404890:	f90017e8 	str	x8, [sp, #40]
  404894:	3828693f 	strb	wzr, [x9, x8]
  404898:	92f80009 	mov	x9, #0x3fffffffffffffff    	// #4611686018427387903
  40489c:	f94017e8 	ldr	x8, [sp, #40]
  4048a0:	eb09011f 	cmp	x8, x9
  4048a4:	54001ae0 	b.eq	404c00 <_ZN2cl4sycl9exceptionC2ESt10error_codeRKNSt7__cxx1112basic_stringIcSt11char_traitsIcESaIcEEEiSt10shared_ptrINS0_7contextEE+0x44c>  // b.none
  4048a8:	d0000001 	adrp	x1, 406000 <_IO_stdin_used+0xa0>
  4048ac:	91083421 	add	x1, x1, #0x20d
  4048b0:	910083e0 	add	x0, sp, #0x20
  4048b4:	52800022 	mov	w2, #0x1                   	// #1
  4048b8:	97fff4f6 	bl	401c90 <_ZNSt7__cxx1112basic_stringIcSt11char_traitsIcESaIcEE9_M_appendEPKcm@plt>
  4048bc:	b0ffffe0 	adrp	x0, 401000 <_init-0xbc0>
  4048c0:	913a0000 	add	x0, x0, #0xe80
  4048c4:	d0000002 	adrp	x2, 406000 <_IO_stdin_used+0xa0>
  4048c8:	910c6842 	add	x2, x2, #0x31a
  4048cc:	d10183a8 	sub	x8, x29, #0x60
  4048d0:	52800201 	mov	w1, #0x10                  	// #16
  4048d4:	2a1303e3 	mov	w3, w19
  4048d8:	94000187 	bl	404ef4 <_ZN9__gnu_cxx12__to_xstringINSt7__cxx1112basic_stringIcSt11char_traitsIcESaIcEEEcEET_PFiPT0_mPKS8_St9__va_listEmSB_z>
  4048dc:	f85a83a8 	ldur	x8, [x29, #-88]
  4048e0:	92fc0009 	mov	x9, #0x1fffffffffffffff    	// #2305843009213693951
  4048e4:	eb48053f 	cmp	x9, x8, lsr #1
  4048e8:	54001920 	b.eq	404c0c <_ZN2cl4sycl9exceptionC2ESt10error_codeRKNSt7__cxx1112basic_stringIcSt11char_traitsIcESaIcEEEiSt10shared_ptrINS0_7contextEE+0x458>  // b.none
  4048ec:	d0000001 	adrp	x1, 406000 <_IO_stdin_used+0xa0>
  4048f0:	910c5421 	add	x1, x1, #0x315
  4048f4:	d10183a0 	sub	x0, x29, #0x60
  4048f8:	52800042 	mov	w2, #0x2                   	// #2
  4048fc:	97fff4e5 	bl	401c90 <_ZNSt7__cxx1112basic_stringIcSt11char_traitsIcESaIcEE9_M_appendEPKcm@plt>
  404900:	d10103a8 	sub	x8, x29, #0x40
  404904:	91004118 	add	x24, x8, #0x10
  404908:	aa0003e8 	mov	x8, x0
  40490c:	f81c03b8 	stur	x24, [x29, #-64]
  404910:	f8410509 	ldr	x9, [x8], #16
  404914:	eb08013f 	cmp	x9, x8
  404918:	540000a0 	b.eq	40492c <_ZN2cl4sycl9exceptionC2ESt10error_codeRKNSt7__cxx1112basic_stringIcSt11char_traitsIcESaIcEEEiSt10shared_ptrINS0_7contextEE+0x178>  // b.none
  40491c:	f940080a 	ldr	x10, [x0, #16]
  404920:	f81c03a9 	stur	x9, [x29, #-64]
  404924:	f81d03aa 	stur	x10, [x29, #-48]
  404928:	14000003 	b	404934 <_ZN2cl4sycl9exceptionC2ESt10error_codeRKNSt7__cxx1112basic_stringIcSt11char_traitsIcESaIcEEEiSt10shared_ptrINS0_7contextEE+0x180>
  40492c:	3dc00120 	ldr	q0, [x9]
  404930:	3d800300 	str	q0, [x24]
  404934:	f9400409 	ldr	x9, [x0, #8]
  404938:	3900401f 	strb	wzr, [x0, #16]
  40493c:	f81c83a9 	stur	x9, [x29, #-56]
  404940:	a9007c08 	stp	x8, xzr, [x0]
  404944:	2a1303e0 	mov	w0, w19
  404948:	97fff552 	bl	401e90 <_ZN2cl4sycl6detail18stringifyErrorCodeEi@plt>
  40494c:	aa0003f7 	mov	x23, x0
  404950:	97fff4cc 	bl	401c80 <strlen@plt>
  404954:	f85c83a8 	ldur	x8, [x29, #-56]
  404958:	92f80009 	mov	x9, #0x3fffffffffffffff    	// #4611686018427387903
  40495c:	cb080128 	sub	x8, x9, x8
  404960:	eb00011f 	cmp	x8, x0
  404964:	540015a3 	b.cc	404c18 <_ZN2cl4sycl9exceptionC2ESt10error_codeRKNSt7__cxx1112basic_stringIcSt11char_traitsIcESaIcEEEiSt10shared_ptrINS0_7contextEE+0x464>  // b.lo, b.ul, b.last
  404968:	aa0003e2 	mov	x2, x0
  40496c:	d10103a0 	sub	x0, x29, #0x40
  404970:	aa1703e1 	mov	x1, x23
  404974:	97fff4c7 	bl	401c90 <_ZNSt7__cxx1112basic_stringIcSt11char_traitsIcESaIcEE9_M_appendEPKcm@plt>
  404978:	d10083a8 	sub	x8, x29, #0x20
  40497c:	9100411b 	add	x27, x8, #0x10
  404980:	aa0003e8 	mov	x8, x0
  404984:	f81e03bb 	stur	x27, [x29, #-32]
  404988:	f8410509 	ldr	x9, [x8], #16
  40498c:	eb08013f 	cmp	x9, x8
  404990:	540000a0 	b.eq	4049a4 <_ZN2cl4sycl9exceptionC2ESt10error_codeRKNSt7__cxx1112basic_stringIcSt11char_traitsIcESaIcEEEiSt10shared_ptrINS0_7contextEE+0x1f0>  // b.none
  404994:	f940080a 	ldr	x10, [x0, #16]
  404998:	f81e03a9 	stur	x9, [x29, #-32]
  40499c:	f81f03aa 	stur	x10, [x29, #-16]
  4049a0:	14000003 	b	4049ac <_ZN2cl4sycl9exceptionC2ESt10error_codeRKNSt7__cxx1112basic_stringIcSt11char_traitsIcESaIcEEEiSt10shared_ptrINS0_7contextEE+0x1f8>
  4049a4:	3dc00120 	ldr	q0, [x9]
  4049a8:	3d800360 	str	q0, [x27]
  4049ac:	f9400409 	ldr	x9, [x0, #8]
  4049b0:	3900401f 	strb	wzr, [x0, #16]
  4049b4:	f81e83a9 	stur	x9, [x29, #-24]
  4049b8:	92f80009 	mov	x9, #0x3fffffffffffffff    	// #4611686018427387903
  4049bc:	a9007c08 	stp	x8, xzr, [x0]
  4049c0:	f85e83a8 	ldur	x8, [x29, #-24]
  4049c4:	eb09011f 	cmp	x8, x9
  4049c8:	540012e0 	b.eq	404c24 <_ZN2cl4sycl9exceptionC2ESt10error_codeRKNSt7__cxx1112basic_stringIcSt11char_traitsIcESaIcEEEiSt10shared_ptrINS0_7contextEE+0x470>  // b.none
  4049cc:	d0000001 	adrp	x1, 406000 <_IO_stdin_used+0xa0>
  4049d0:	910c6021 	add	x1, x1, #0x318
  4049d4:	d10083a0 	sub	x0, x29, #0x20
  4049d8:	52800022 	mov	w2, #0x1                   	// #1
  4049dc:	97fff4ad 	bl	401c90 <_ZNSt7__cxx1112basic_stringIcSt11char_traitsIcESaIcEE9_M_appendEPKcm@plt>
  4049e0:	910003e8 	mov	x8, sp
  4049e4:	91004117 	add	x23, x8, #0x10
  4049e8:	aa0003e8 	mov	x8, x0
  4049ec:	f90003f7 	str	x23, [sp]
  4049f0:	f8410509 	ldr	x9, [x8], #16
  4049f4:	eb08013f 	cmp	x9, x8
  4049f8:	540000a0 	b.eq	404a0c <_ZN2cl4sycl9exceptionC2ESt10error_codeRKNSt7__cxx1112basic_stringIcSt11char_traitsIcESaIcEEEiSt10shared_ptrINS0_7contextEE+0x258>  // b.none
  4049fc:	f940080a 	ldr	x10, [x0, #16]
  404a00:	f90003e9 	str	x9, [sp]
  404a04:	f9000bea 	str	x10, [sp, #16]
  404a08:	14000003 	b	404a14 <_ZN2cl4sycl9exceptionC2ESt10error_codeRKNSt7__cxx1112basic_stringIcSt11char_traitsIcESaIcEEEiSt10shared_ptrINS0_7contextEE+0x260>
  404a0c:	3dc00120 	ldr	q0, [x9]
  404a10:	3d8002e0 	str	q0, [x23]
  404a14:	f9400409 	ldr	x9, [x0, #8]
  404a18:	3900401f 	strb	wzr, [x0, #16]
  404a1c:	f90007e9 	str	x9, [sp, #8]
  404a20:	a9007c08 	stp	x8, xzr, [x0]
  404a24:	f85e03a8 	ldur	x8, [x29, #-32]
  404a28:	eb1b011f 	cmp	x8, x27
  404a2c:	54000060 	b.eq	404a38 <_ZN2cl4sycl9exceptionC2ESt10error_codeRKNSt7__cxx1112basic_stringIcSt11char_traitsIcESaIcEEEiSt10shared_ptrINS0_7contextEE+0x284>  // b.none
  404a30:	aa0803e0 	mov	x0, x8
  404a34:	97fff4df 	bl	401db0 <_ZdlPv@plt>
  404a38:	f85c03a0 	ldur	x0, [x29, #-64]
  404a3c:	eb18001f 	cmp	x0, x24
  404a40:	54000040 	b.eq	404a48 <_ZN2cl4sycl9exceptionC2ESt10error_codeRKNSt7__cxx1112basic_stringIcSt11char_traitsIcESaIcEEEiSt10shared_ptrINS0_7contextEE+0x294>  // b.none
  404a44:	97fff4db 	bl	401db0 <_ZdlPv@plt>
  404a48:	f85a03a0 	ldur	x0, [x29, #-96]
  404a4c:	d10183a8 	sub	x8, x29, #0x60
  404a50:	91004108 	add	x8, x8, #0x10
  404a54:	eb08001f 	cmp	x0, x8
  404a58:	54000040 	b.eq	404a60 <_ZN2cl4sycl9exceptionC2ESt10error_codeRKNSt7__cxx1112basic_stringIcSt11char_traitsIcESaIcEEEiSt10shared_ptrINS0_7contextEE+0x2ac>  // b.none
  404a5c:	97fff4d5 	bl	401db0 <_ZdlPv@plt>
  404a60:	a94213e3 	ldp	x3, x4, [sp, #32]
  404a64:	528001ea 	mov	w10, #0xf                   	// #15
  404a68:	a9400be1 	ldp	x1, x2, [sp]
  404a6c:	f9401be9 	ldr	x9, [sp, #48]
  404a70:	eb19007f 	cmp	x3, x25
  404a74:	8b040048 	add	x8, x2, x4
  404a78:	9a890149 	csel	x9, x10, x9, eq  // eq = none
  404a7c:	eb09011f 	cmp	x8, x9
  404a80:	540000e9 	b.ls	404a9c <_ZN2cl4sycl9exceptionC2ESt10error_codeRKNSt7__cxx1112basic_stringIcSt11char_traitsIcESaIcEEEiSt10shared_ptrINS0_7contextEE+0x2e8>  // b.plast
  404a84:	f9400be9 	ldr	x9, [sp, #16]
  404a88:	eb17003f 	cmp	x1, x23
  404a8c:	528001ea 	mov	w10, #0xf                   	// #15
  404a90:	9a890149 	csel	x9, x10, x9, eq  // eq = none
  404a94:	eb09011f 	cmp	x8, x9
  404a98:	54000089 	b.ls	404aa8 <_ZN2cl4sycl9exceptionC2ESt10error_codeRKNSt7__cxx1112basic_stringIcSt11char_traitsIcESaIcEEEiSt10shared_ptrINS0_7contextEE+0x2f4>  // b.plast
  404a9c:	910083e0 	add	x0, sp, #0x20
  404aa0:	97fff47c 	bl	401c90 <_ZNSt7__cxx1112basic_stringIcSt11char_traitsIcESaIcEE9_M_appendEPKcm@plt>
  404aa4:	14000005 	b	404ab8 <_ZN2cl4sycl9exceptionC2ESt10error_codeRKNSt7__cxx1112basic_stringIcSt11char_traitsIcESaIcEEEiSt10shared_ptrINS0_7contextEE+0x304>
  404aa8:	910003e0 	mov	x0, sp
  404aac:	aa1f03e1 	mov	x1, xzr
  404ab0:	aa1f03e2 	mov	x2, xzr
  404ab4:	97fff507 	bl	401ed0 <_ZNSt7__cxx1112basic_stringIcSt11char_traitsIcESaIcEE10_M_replaceEmmPKcm@plt>
  404ab8:	910103e8 	add	x8, sp, #0x40
  404abc:	91004118 	add	x24, x8, #0x10
  404ac0:	aa0003e8 	mov	x8, x0
  404ac4:	f90023f8 	str	x24, [sp, #64]
  404ac8:	f8410509 	ldr	x9, [x8], #16
  404acc:	eb08013f 	cmp	x9, x8
  404ad0:	540000a0 	b.eq	404ae4 <_ZN2cl4sycl9exceptionC2ESt10error_codeRKNSt7__cxx1112basic_stringIcSt11char_traitsIcESaIcEEEiSt10shared_ptrINS0_7contextEE+0x330>  // b.none
  404ad4:	f940080a 	ldr	x10, [x0, #16]
  404ad8:	f90023e9 	str	x9, [sp, #64]
  404adc:	f9002bea 	str	x10, [sp, #80]
  404ae0:	14000003 	b	404aec <_ZN2cl4sycl9exceptionC2ESt10error_codeRKNSt7__cxx1112basic_stringIcSt11char_traitsIcESaIcEEEiSt10shared_ptrINS0_7contextEE+0x338>
  404ae4:	3dc00120 	ldr	q0, [x9]
  404ae8:	3d800300 	str	q0, [x24]
  404aec:	f9400409 	ldr	x9, [x0, #8]
  404af0:	3900401f 	strb	wzr, [x0, #16]
  404af4:	f90027e9 	str	x9, [sp, #72]
  404af8:	a9007c08 	stp	x8, xzr, [x0]
  404afc:	910183e3 	add	x3, sp, #0x60
  404b00:	910103e4 	add	x4, sp, #0x40
  404b04:	aa1403e0 	mov	x0, x20
  404b08:	aa1603e1 	mov	x1, x22
  404b0c:	aa1503e2 	mov	x2, x21
  404b10:	97fff4d0 	bl	401e50 <_ZN2cl4sycl9exceptionC2ESt10error_codeSt10shared_ptrINS0_7contextEERKNSt7__cxx1112basic_stringIcSt11char_traitsIcESaIcEEE@plt>
  404b14:	f94023e0 	ldr	x0, [sp, #64]
  404b18:	eb18001f 	cmp	x0, x24
  404b1c:	54000040 	b.eq	404b24 <_ZN2cl4sycl9exceptionC2ESt10error_codeRKNSt7__cxx1112basic_stringIcSt11char_traitsIcESaIcEEEiSt10shared_ptrINS0_7contextEE+0x370>  // b.none
  404b20:	97fff4a4 	bl	401db0 <_ZdlPv@plt>
  404b24:	f94003e0 	ldr	x0, [sp]
  404b28:	eb17001f 	cmp	x0, x23
  404b2c:	54000040 	b.eq	404b34 <_ZN2cl4sycl9exceptionC2ESt10error_codeRKNSt7__cxx1112basic_stringIcSt11char_traitsIcESaIcEEEiSt10shared_ptrINS0_7contextEE+0x380>  // b.none
  404b30:	97fff4a0 	bl	401db0 <_ZdlPv@plt>
  404b34:	f94013e0 	ldr	x0, [sp, #32]
  404b38:	eb19001f 	cmp	x0, x25
  404b3c:	54000040 	b.eq	404b44 <_ZN2cl4sycl9exceptionC2ESt10error_codeRKNSt7__cxx1112basic_stringIcSt11char_traitsIcESaIcEEEiSt10shared_ptrINS0_7contextEE+0x390>  // b.none
  404b40:	97fff49c 	bl	401db0 <_ZdlPv@plt>
  404b44:	f94037f5 	ldr	x21, [sp, #104]
  404b48:	b40003f5 	cbz	x21, 404bc4 <_ZN2cl4sycl9exceptionC2ESt10error_codeRKNSt7__cxx1112basic_stringIcSt11char_traitsIcESaIcEEEiSt10shared_ptrINS0_7contextEE+0x410>
  404b4c:	910022a8 	add	x8, x21, #0x8
  404b50:	b400011a 	cbz	x26, 404b70 <_ZN2cl4sycl9exceptionC2ESt10error_codeRKNSt7__cxx1112basic_stringIcSt11char_traitsIcESaIcEEEiSt10shared_ptrINS0_7contextEE+0x3bc>
  404b54:	885ffd09 	ldaxr	w9, [x8]
  404b58:	5100052a 	sub	w10, w9, #0x1
  404b5c:	880bfd0a 	stlxr	w11, w10, [x8]
  404b60:	35ffffab 	cbnz	w11, 404b54 <_ZN2cl4sycl9exceptionC2ESt10error_codeRKNSt7__cxx1112basic_stringIcSt11char_traitsIcESaIcEEEiSt10shared_ptrINS0_7contextEE+0x3a0>
  404b64:	7100053f 	cmp	w9, #0x1
  404b68:	540000e0 	b.eq	404b84 <_ZN2cl4sycl9exceptionC2ESt10error_codeRKNSt7__cxx1112basic_stringIcSt11char_traitsIcESaIcEEEiSt10shared_ptrINS0_7contextEE+0x3d0>  // b.none
  404b6c:	14000016 	b	404bc4 <_ZN2cl4sycl9exceptionC2ESt10error_codeRKNSt7__cxx1112basic_stringIcSt11char_traitsIcESaIcEEEiSt10shared_ptrINS0_7contextEE+0x410>
  404b70:	b9400109 	ldr	w9, [x8]
  404b74:	5100052a 	sub	w10, w9, #0x1
  404b78:	b900010a 	str	w10, [x8]
  404b7c:	7100053f 	cmp	w9, #0x1
  404b80:	54000221 	b.ne	404bc4 <_ZN2cl4sycl9exceptionC2ESt10error_codeRKNSt7__cxx1112basic_stringIcSt11char_traitsIcESaIcEEEiSt10shared_ptrINS0_7contextEE+0x410>  // b.any
  404b84:	aa1503f6 	mov	x22, x21
  404b88:	aa1503e0 	mov	x0, x21
  404b8c:	f840c6c8 	ldr	x8, [x22], #12
  404b90:	f9400908 	ldr	x8, [x8, #16]
  404b94:	d63f0100 	blr	x8
  404b98:	b400029a 	cbz	x26, 404be8 <_ZN2cl4sycl9exceptionC2ESt10error_codeRKNSt7__cxx1112basic_stringIcSt11char_traitsIcESaIcEEEiSt10shared_ptrINS0_7contextEE+0x434>
  404b9c:	885ffec8 	ldaxr	w8, [x22]
  404ba0:	51000509 	sub	w9, w8, #0x1
  404ba4:	880afec9 	stlxr	w10, w9, [x22]
  404ba8:	35ffffaa 	cbnz	w10, 404b9c <_ZN2cl4sycl9exceptionC2ESt10error_codeRKNSt7__cxx1112basic_stringIcSt11char_traitsIcESaIcEEEiSt10shared_ptrINS0_7contextEE+0x3e8>
  404bac:	7100051f 	cmp	w8, #0x1
  404bb0:	540000a1 	b.ne	404bc4 <_ZN2cl4sycl9exceptionC2ESt10error_codeRKNSt7__cxx1112basic_stringIcSt11char_traitsIcESaIcEEEiSt10shared_ptrINS0_7contextEE+0x410>  // b.any
  404bb4:	f94002a8 	ldr	x8, [x21]
  404bb8:	aa1503e0 	mov	x0, x21
  404bbc:	f9400d08 	ldr	x8, [x8, #24]
  404bc0:	d63f0100 	blr	x8
  404bc4:	b9002a93 	str	w19, [x20, #40]
  404bc8:	a9524ff4 	ldp	x20, x19, [sp, #288]
  404bcc:	a95157f6 	ldp	x22, x21, [sp, #272]
  404bd0:	a9505ff8 	ldp	x24, x23, [sp, #256]
  404bd4:	a94f67fa 	ldp	x26, x25, [sp, #240]
  404bd8:	a94e6ffc 	ldp	x28, x27, [sp, #224]
  404bdc:	a94d7bfd 	ldp	x29, x30, [sp, #208]
  404be0:	9104c3ff 	add	sp, sp, #0x130
  404be4:	d65f03c0 	ret
  404be8:	b94002c8 	ldr	w8, [x22]
  404bec:	51000509 	sub	w9, w8, #0x1
  404bf0:	b90002c9 	str	w9, [x22]
  404bf4:	7100051f 	cmp	w8, #0x1
  404bf8:	54fffde0 	b.eq	404bb4 <_ZN2cl4sycl9exceptionC2ESt10error_codeRKNSt7__cxx1112basic_stringIcSt11char_traitsIcESaIcEEEiSt10shared_ptrINS0_7contextEE+0x400>  // b.none
  404bfc:	17fffff2 	b	404bc4 <_ZN2cl4sycl9exceptionC2ESt10error_codeRKNSt7__cxx1112basic_stringIcSt11char_traitsIcESaIcEEEiSt10shared_ptrINS0_7contextEE+0x410>
  404c00:	d0000000 	adrp	x0, 406000 <_IO_stdin_used+0xa0>
  404c04:	910c0000 	add	x0, x0, #0x300
  404c08:	97fff446 	bl	401d20 <_ZSt20__throw_length_errorPKc@plt>
  404c0c:	d0000000 	adrp	x0, 406000 <_IO_stdin_used+0xa0>
  404c10:	910c0000 	add	x0, x0, #0x300
  404c14:	97fff443 	bl	401d20 <_ZSt20__throw_length_errorPKc@plt>
  404c18:	d0000000 	adrp	x0, 406000 <_IO_stdin_used+0xa0>
  404c1c:	910c0000 	add	x0, x0, #0x300
  404c20:	97fff440 	bl	401d20 <_ZSt20__throw_length_errorPKc@plt>
  404c24:	d0000000 	adrp	x0, 406000 <_IO_stdin_used+0xa0>
  404c28:	910c0000 	add	x0, x0, #0x300
  404c2c:	97fff43d 	bl	401d20 <_ZSt20__throw_length_errorPKc@plt>
  404c30:	aa0003f3 	mov	x19, x0
  404c34:	14000020 	b	404cb4 <_ZN2cl4sycl9exceptionC2ESt10error_codeRKNSt7__cxx1112basic_stringIcSt11char_traitsIcESaIcEEEiSt10shared_ptrINS0_7contextEE+0x500>
  404c38:	f94023e8 	ldr	x8, [sp, #64]
  404c3c:	aa0003f3 	mov	x19, x0
  404c40:	eb18011f 	cmp	x8, x24
  404c44:	540000a0 	b.eq	404c58 <_ZN2cl4sycl9exceptionC2ESt10error_codeRKNSt7__cxx1112basic_stringIcSt11char_traitsIcESaIcEEEiSt10shared_ptrINS0_7contextEE+0x4a4>  // b.none
  404c48:	aa0803e0 	mov	x0, x8
  404c4c:	97fff459 	bl	401db0 <_ZdlPv@plt>
  404c50:	14000002 	b	404c58 <_ZN2cl4sycl9exceptionC2ESt10error_codeRKNSt7__cxx1112basic_stringIcSt11char_traitsIcESaIcEEEiSt10shared_ptrINS0_7contextEE+0x4a4>
  404c54:	aa0003f3 	mov	x19, x0
  404c58:	f94003e0 	ldr	x0, [sp]
  404c5c:	eb17001f 	cmp	x0, x23
  404c60:	54000201 	b.ne	404ca0 <_ZN2cl4sycl9exceptionC2ESt10error_codeRKNSt7__cxx1112basic_stringIcSt11char_traitsIcESaIcEEEiSt10shared_ptrINS0_7contextEE+0x4ec>  // b.any
  404c64:	14000010 	b	404ca4 <_ZN2cl4sycl9exceptionC2ESt10error_codeRKNSt7__cxx1112basic_stringIcSt11char_traitsIcESaIcEEEiSt10shared_ptrINS0_7contextEE+0x4f0>
  404c68:	aa0003f3 	mov	x19, x0
  404c6c:	1400000e 	b	404ca4 <_ZN2cl4sycl9exceptionC2ESt10error_codeRKNSt7__cxx1112basic_stringIcSt11char_traitsIcESaIcEEEiSt10shared_ptrINS0_7contextEE+0x4f0>
  404c70:	f85e03a8 	ldur	x8, [x29, #-32]
  404c74:	aa0003f3 	mov	x19, x0
  404c78:	eb1b011f 	cmp	x8, x27
  404c7c:	54000241 	b.ne	404cc4 <_ZN2cl4sycl9exceptionC2ESt10error_codeRKNSt7__cxx1112basic_stringIcSt11char_traitsIcESaIcEEEiSt10shared_ptrINS0_7contextEE+0x510>  // b.any
  404c80:	f85c03a0 	ldur	x0, [x29, #-64]
  404c84:	eb18001f 	cmp	x0, x24
  404c88:	540004c1 	b.ne	404d20 <_ZN2cl4sycl9exceptionC2ESt10error_codeRKNSt7__cxx1112basic_stringIcSt11char_traitsIcESaIcEEEiSt10shared_ptrINS0_7contextEE+0x56c>  // b.any
  404c8c:	f85a03a0 	ldur	x0, [x29, #-96]
  404c90:	d10183a8 	sub	x8, x29, #0x60
  404c94:	91004108 	add	x8, x8, #0x10
  404c98:	eb08001f 	cmp	x0, x8
  404c9c:	54000040 	b.eq	404ca4 <_ZN2cl4sycl9exceptionC2ESt10error_codeRKNSt7__cxx1112basic_stringIcSt11char_traitsIcESaIcEEEiSt10shared_ptrINS0_7contextEE+0x4f0>  // b.none
  404ca0:	97fff444 	bl	401db0 <_ZdlPv@plt>
  404ca4:	f94013e0 	ldr	x0, [sp, #32]
  404ca8:	eb19001f 	cmp	x0, x25
  404cac:	54000040 	b.eq	404cb4 <_ZN2cl4sycl9exceptionC2ESt10error_codeRKNSt7__cxx1112basic_stringIcSt11char_traitsIcESaIcEEEiSt10shared_ptrINS0_7contextEE+0x500>  // b.none
  404cb0:	97fff440 	bl	401db0 <_ZdlPv@plt>
  404cb4:	910183e0 	add	x0, sp, #0x60
  404cb8:	94000021 	bl	404d3c <_ZNSt12__shared_ptrIN2cl4sycl7contextELN9__gnu_cxx12_Lock_policyE2EED2Ev>
  404cbc:	aa1303e0 	mov	x0, x19
  404cc0:	97fff4a4 	bl	401f50 <_Unwind_Resume@plt>
  404cc4:	aa0803e0 	mov	x0, x8
  404cc8:	97fff43a 	bl	401db0 <_ZdlPv@plt>
  404ccc:	f85c03a0 	ldur	x0, [x29, #-64]
  404cd0:	eb18001f 	cmp	x0, x24
  404cd4:	54fffdc0 	b.eq	404c8c <_ZN2cl4sycl9exceptionC2ESt10error_codeRKNSt7__cxx1112basic_stringIcSt11char_traitsIcESaIcEEEiSt10shared_ptrINS0_7contextEE+0x4d8>  // b.none
  404cd8:	14000012 	b	404d20 <_ZN2cl4sycl9exceptionC2ESt10error_codeRKNSt7__cxx1112basic_stringIcSt11char_traitsIcESaIcEEEiSt10shared_ptrINS0_7contextEE+0x56c>
  404cdc:	aa0003f3 	mov	x19, x0
  404ce0:	f85a03a0 	ldur	x0, [x29, #-96]
  404ce4:	d10183a8 	sub	x8, x29, #0x60
  404ce8:	91004108 	add	x8, x8, #0x10
  404cec:	eb08001f 	cmp	x0, x8
  404cf0:	54fffd81 	b.ne	404ca0 <_ZN2cl4sycl9exceptionC2ESt10error_codeRKNSt7__cxx1112basic_stringIcSt11char_traitsIcESaIcEEEiSt10shared_ptrINS0_7contextEE+0x4ec>  // b.any
  404cf4:	17ffffec 	b	404ca4 <_ZN2cl4sycl9exceptionC2ESt10error_codeRKNSt7__cxx1112basic_stringIcSt11char_traitsIcESaIcEEEiSt10shared_ptrINS0_7contextEE+0x4f0>
  404cf8:	f94013e8 	ldr	x8, [sp, #32]
  404cfc:	aa0003f3 	mov	x19, x0
  404d00:	eb19011f 	cmp	x8, x25
  404d04:	54fffd80 	b.eq	404cb4 <_ZN2cl4sycl9exceptionC2ESt10error_codeRKNSt7__cxx1112basic_stringIcSt11char_traitsIcESaIcEEEiSt10shared_ptrINS0_7contextEE+0x500>  // b.none
  404d08:	aa0803e0 	mov	x0, x8
  404d0c:	17ffffe9 	b	404cb0 <_ZN2cl4sycl9exceptionC2ESt10error_codeRKNSt7__cxx1112basic_stringIcSt11char_traitsIcESaIcEEEiSt10shared_ptrINS0_7contextEE+0x4fc>
  404d10:	aa0003f3 	mov	x19, x0
  404d14:	f85c03a0 	ldur	x0, [x29, #-64]
  404d18:	eb18001f 	cmp	x0, x24
  404d1c:	54fffb80 	b.eq	404c8c <_ZN2cl4sycl9exceptionC2ESt10error_codeRKNSt7__cxx1112basic_stringIcSt11char_traitsIcESaIcEEEiSt10shared_ptrINS0_7contextEE+0x4d8>  // b.none
  404d20:	97fff424 	bl	401db0 <_ZdlPv@plt>
  404d24:	f85a03a0 	ldur	x0, [x29, #-96]
  404d28:	d10183a8 	sub	x8, x29, #0x60
  404d2c:	91004108 	add	x8, x8, #0x10
  404d30:	eb08001f 	cmp	x0, x8
  404d34:	54fffb61 	b.ne	404ca0 <_ZN2cl4sycl9exceptionC2ESt10error_codeRKNSt7__cxx1112basic_stringIcSt11char_traitsIcESaIcEEEiSt10shared_ptrINS0_7contextEE+0x4ec>  // b.any
  404d38:	17ffffdb 	b	404ca4 <_ZN2cl4sycl9exceptionC2ESt10error_codeRKNSt7__cxx1112basic_stringIcSt11char_traitsIcESaIcEEEiSt10shared_ptrINS0_7contextEE+0x4f0>

0000000000404d3c <_ZNSt12__shared_ptrIN2cl4sycl7contextELN9__gnu_cxx12_Lock_policyE2EED2Ev>:
  404d3c:	a9bd7bfd 	stp	x29, x30, [sp, #-48]!
  404d40:	f9000bf5 	str	x21, [sp, #16]
  404d44:	a9024ff4 	stp	x20, x19, [sp, #32]
  404d48:	910003fd 	mov	x29, sp
  404d4c:	f9400413 	ldr	x19, [x0, #8]
  404d50:	b4000533 	cbz	x19, 404df4 <_ZNSt12__shared_ptrIN2cl4sycl7contextELN9__gnu_cxx12_Lock_policyE2EED2Ev+0xb8>
  404d54:	f00000b4 	adrp	x20, 41b000 <GCC_except_table33+0xff8c>
  404d58:	91002268 	add	x8, x19, #0x8
  404d5c:	f947ea94 	ldr	x20, [x20, #4048]
  404d60:	b4000114 	cbz	x20, 404d80 <_ZNSt12__shared_ptrIN2cl4sycl7contextELN9__gnu_cxx12_Lock_policyE2EED2Ev+0x44>
  404d64:	885ffd09 	ldaxr	w9, [x8]
  404d68:	5100052a 	sub	w10, w9, #0x1
  404d6c:	880bfd0a 	stlxr	w11, w10, [x8]
  404d70:	35ffffab 	cbnz	w11, 404d64 <_ZNSt12__shared_ptrIN2cl4sycl7contextELN9__gnu_cxx12_Lock_policyE2EED2Ev+0x28>
  404d74:	7100053f 	cmp	w9, #0x1
  404d78:	540000e0 	b.eq	404d94 <_ZNSt12__shared_ptrIN2cl4sycl7contextELN9__gnu_cxx12_Lock_policyE2EED2Ev+0x58>  // b.none
  404d7c:	1400001e 	b	404df4 <_ZNSt12__shared_ptrIN2cl4sycl7contextELN9__gnu_cxx12_Lock_policyE2EED2Ev+0xb8>
  404d80:	b9400109 	ldr	w9, [x8]
  404d84:	5100052a 	sub	w10, w9, #0x1
  404d88:	b900010a 	str	w10, [x8]
  404d8c:	7100053f 	cmp	w9, #0x1
  404d90:	54000321 	b.ne	404df4 <_ZNSt12__shared_ptrIN2cl4sycl7contextELN9__gnu_cxx12_Lock_policyE2EED2Ev+0xb8>  // b.any
  404d94:	aa1303f5 	mov	x21, x19
  404d98:	aa1303e0 	mov	x0, x19
  404d9c:	f840c6a8 	ldr	x8, [x21], #12
  404da0:	f9400908 	ldr	x8, [x8, #16]
  404da4:	d63f0100 	blr	x8
  404da8:	b40001d4 	cbz	x20, 404de0 <_ZNSt12__shared_ptrIN2cl4sycl7contextELN9__gnu_cxx12_Lock_policyE2EED2Ev+0xa4>
  404dac:	885ffea8 	ldaxr	w8, [x21]
  404db0:	51000509 	sub	w9, w8, #0x1
  404db4:	880afea9 	stlxr	w10, w9, [x21]
  404db8:	35ffffaa 	cbnz	w10, 404dac <_ZNSt12__shared_ptrIN2cl4sycl7contextELN9__gnu_cxx12_Lock_policyE2EED2Ev+0x70>
  404dbc:	7100051f 	cmp	w8, #0x1
  404dc0:	540001a1 	b.ne	404df4 <_ZNSt12__shared_ptrIN2cl4sycl7contextELN9__gnu_cxx12_Lock_policyE2EED2Ev+0xb8>  // b.any
  404dc4:	f9400268 	ldr	x8, [x19]
  404dc8:	f9400d01 	ldr	x1, [x8, #24]
  404dcc:	aa1303e0 	mov	x0, x19
  404dd0:	a9424ff4 	ldp	x20, x19, [sp, #32]
  404dd4:	f9400bf5 	ldr	x21, [sp, #16]
  404dd8:	a8c37bfd 	ldp	x29, x30, [sp], #48
  404ddc:	d61f0020 	br	x1
  404de0:	b94002a8 	ldr	w8, [x21]
  404de4:	51000509 	sub	w9, w8, #0x1
  404de8:	b90002a9 	str	w9, [x21]
  404dec:	7100051f 	cmp	w8, #0x1
  404df0:	54fffea0 	b.eq	404dc4 <_ZNSt12__shared_ptrIN2cl4sycl7contextELN9__gnu_cxx12_Lock_policyE2EED2Ev+0x88>  // b.none
  404df4:	a9424ff4 	ldp	x20, x19, [sp, #32]
  404df8:	f9400bf5 	ldr	x21, [sp, #16]
  404dfc:	a8c37bfd 	ldp	x29, x30, [sp], #48
  404e00:	d65f03c0 	ret

0000000000404e04 <_ZN2cl4sycl13runtime_errorD0Ev>:
  404e04:	a9bd7bfd 	stp	x29, x30, [sp, #-48]!
  404e08:	a90157f6 	stp	x22, x21, [sp, #16]
  404e0c:	a9024ff4 	stp	x20, x19, [sp, #32]
  404e10:	910003fd 	mov	x29, sp
  404e14:	aa0003f3 	mov	x19, x0
  404e18:	f9401c14 	ldr	x20, [x0, #56]
  404e1c:	f00000a8 	adrp	x8, 41b000 <GCC_except_table33+0xff8c>
  404e20:	91354108 	add	x8, x8, #0xd50
  404e24:	f9000008 	str	x8, [x0]
  404e28:	b4000434 	cbz	x20, 404eac <_ZN2cl4sycl13runtime_errorD0Ev+0xa8>
  404e2c:	f00000b5 	adrp	x21, 41b000 <GCC_except_table33+0xff8c>
  404e30:	91002288 	add	x8, x20, #0x8
  404e34:	f947eab5 	ldr	x21, [x21, #4048]
  404e38:	b4000115 	cbz	x21, 404e58 <_ZN2cl4sycl13runtime_errorD0Ev+0x54>
  404e3c:	885ffd09 	ldaxr	w9, [x8]
  404e40:	5100052a 	sub	w10, w9, #0x1
  404e44:	880bfd0a 	stlxr	w11, w10, [x8]
  404e48:	35ffffab 	cbnz	w11, 404e3c <_ZN2cl4sycl13runtime_errorD0Ev+0x38>
  404e4c:	7100053f 	cmp	w9, #0x1
  404e50:	540000e0 	b.eq	404e6c <_ZN2cl4sycl13runtime_errorD0Ev+0x68>  // b.none
  404e54:	14000016 	b	404eac <_ZN2cl4sycl13runtime_errorD0Ev+0xa8>
  404e58:	b9400109 	ldr	w9, [x8]
  404e5c:	5100052a 	sub	w10, w9, #0x1
  404e60:	b900010a 	str	w10, [x8]
  404e64:	7100053f 	cmp	w9, #0x1
  404e68:	54000221 	b.ne	404eac <_ZN2cl4sycl13runtime_errorD0Ev+0xa8>  // b.any
  404e6c:	aa1403f6 	mov	x22, x20
  404e70:	aa1403e0 	mov	x0, x20
  404e74:	f840c6c8 	ldr	x8, [x22], #12
  404e78:	f9400908 	ldr	x8, [x8, #16]
  404e7c:	d63f0100 	blr	x8
  404e80:	b40002f5 	cbz	x21, 404edc <_ZN2cl4sycl13runtime_errorD0Ev+0xd8>
  404e84:	885ffec8 	ldaxr	w8, [x22]
  404e88:	51000509 	sub	w9, w8, #0x1
  404e8c:	880afec9 	stlxr	w10, w9, [x22]
  404e90:	35ffffaa 	cbnz	w10, 404e84 <_ZN2cl4sycl13runtime_errorD0Ev+0x80>
  404e94:	7100051f 	cmp	w8, #0x1
  404e98:	540000a1 	b.ne	404eac <_ZN2cl4sycl13runtime_errorD0Ev+0xa8>  // b.any
  404e9c:	f9400288 	ldr	x8, [x20]
  404ea0:	aa1403e0 	mov	x0, x20
  404ea4:	f9400d08 	ldr	x8, [x8, #24]
  404ea8:	d63f0100 	blr	x8
  404eac:	f9400660 	ldr	x0, [x19, #8]
  404eb0:	91006268 	add	x8, x19, #0x18
  404eb4:	eb08001f 	cmp	x0, x8
  404eb8:	54000040 	b.eq	404ec0 <_ZN2cl4sycl13runtime_errorD0Ev+0xbc>  // b.none
  404ebc:	97fff3bd 	bl	401db0 <_ZdlPv@plt>
  404ec0:	aa1303e0 	mov	x0, x19
  404ec4:	97fff42b 	bl	401f70 <_ZNSt9exceptionD2Ev@plt>
  404ec8:	aa1303e0 	mov	x0, x19
  404ecc:	a9424ff4 	ldp	x20, x19, [sp, #32]
  404ed0:	a94157f6 	ldp	x22, x21, [sp, #16]
  404ed4:	a8c37bfd 	ldp	x29, x30, [sp], #48
  404ed8:	17fff3b6 	b	401db0 <_ZdlPv@plt>
  404edc:	b94002c8 	ldr	w8, [x22]
  404ee0:	51000509 	sub	w9, w8, #0x1
  404ee4:	b90002c9 	str	w9, [x22]
  404ee8:	7100051f 	cmp	w8, #0x1
  404eec:	54fffd80 	b.eq	404e9c <_ZN2cl4sycl13runtime_errorD0Ev+0x98>  // b.none
  404ef0:	17ffffef 	b	404eac <_ZN2cl4sycl13runtime_errorD0Ev+0xa8>

0000000000404ef4 <_ZN9__gnu_cxx12__to_xstringINSt7__cxx1112basic_stringIcSt11char_traitsIcESaIcEEEcEET_PFiPT0_mPKS8_St9__va_listEmSB_z>:
  404ef4:	a9bc7bfd 	stp	x29, x30, [sp, #-64]!
  404ef8:	f9000bfc 	str	x28, [sp, #16]
  404efc:	a90257f6 	stp	x22, x21, [sp, #32]
  404f00:	a9034ff4 	stp	x20, x19, [sp, #48]
  404f04:	910003fd 	mov	x29, sp
  404f08:	d10403ff 	sub	sp, sp, #0x100
  404f0c:	91003c2b 	add	x11, x1, #0xf
  404f10:	910003ea 	mov	x10, sp
  404f14:	927ced6b 	and	x11, x11, #0xfffffffffffffff0
  404f18:	910003f3 	mov	x19, sp
  404f1c:	aa0803f4 	mov	x20, x8
  404f20:	cb0b0155 	sub	x21, x10, x11
  404f24:	aa0003e9 	mov	x9, x0
  404f28:	a93893a3 	stp	x3, x4, [x29, #-120]
  404f2c:	a9399ba5 	stp	x5, x6, [x29, #-104]
  404f30:	d100a3a8 	sub	x8, x29, #0x28
  404f34:	f81a83a7 	stur	x7, [x29, #-88]
  404f38:	ad000660 	stp	q0, q1, [x19]
  404f3c:	ad010e62 	stp	q2, q3, [x19, #32]
  404f40:	ad021664 	stp	q4, q5, [x19, #64]
  404f44:	ad031e66 	stp	q6, q7, [x19, #96]
  404f48:	910002bf 	mov	sp, x21
  404f4c:	928004ea 	mov	x10, #0xffffffffffffffd8    	// #-40
  404f50:	9100026b 	add	x11, x19, #0x0
  404f54:	d101e3ac 	sub	x12, x29, #0x78
  404f58:	f2dff00a 	movk	x10, #0xff80, lsl #32
  404f5c:	9102016b 	add	x11, x11, #0x80
  404f60:	9100a18c 	add	x12, x12, #0x28
  404f64:	910103ad 	add	x13, x29, #0x40
  404f68:	d10143a3 	sub	x3, x29, #0x50
  404f6c:	aa1503e0 	mov	x0, x21
  404f70:	a93eabab 	stp	x11, x10, [x29, #-24]
  404f74:	a93db3ad 	stp	x13, x12, [x29, #-40]
  404f78:	ad400101 	ldp	q1, q0, [x8]
  404f7c:	ad3d83a1 	stp	q1, q0, [x29, #-80]
  404f80:	d63f0120 	blr	x9
  404f84:	2a0003e8 	mov	w8, w0
  404f88:	91004280 	add	x0, x20, #0x10
  404f8c:	93407d16 	sxtw	x22, w8
  404f90:	7100411f 	cmp	w8, #0x10
  404f94:	f9000280 	str	x0, [x20]
  404f98:	f81f83b6 	stur	x22, [x29, #-8]
  404f9c:	54000103 	b.cc	404fbc <_ZN9__gnu_cxx12__to_xstringINSt7__cxx1112basic_stringIcSt11char_traitsIcESaIcEEEcEET_PFiPT0_mPKS8_St9__va_listEmSB_z+0xc8>  // b.lo, b.ul, b.last
  404fa0:	d10023a1 	sub	x1, x29, #0x8
  404fa4:	aa1403e0 	mov	x0, x20
  404fa8:	aa1f03e2 	mov	x2, xzr
  404fac:	97fff3ed 	bl	401f60 <_ZNSt7__cxx1112basic_stringIcSt11char_traitsIcESaIcEE9_M_createERmm@plt>
  404fb0:	f85f83a8 	ldur	x8, [x29, #-8]
  404fb4:	f9000280 	str	x0, [x20]
  404fb8:	f9000a88 	str	x8, [x20, #16]
  404fbc:	b4000136 	cbz	x22, 404fe0 <_ZN9__gnu_cxx12__to_xstringINSt7__cxx1112basic_stringIcSt11char_traitsIcESaIcEEEcEET_PFiPT0_mPKS8_St9__va_listEmSB_z+0xec>
  404fc0:	f10006df 	cmp	x22, #0x1
  404fc4:	54000081 	b.ne	404fd4 <_ZN9__gnu_cxx12__to_xstringINSt7__cxx1112basic_stringIcSt11char_traitsIcESaIcEEEcEET_PFiPT0_mPKS8_St9__va_listEmSB_z+0xe0>  // b.any
  404fc8:	394002a8 	ldrb	w8, [x21]
  404fcc:	39000008 	strb	w8, [x0]
  404fd0:	14000004 	b	404fe0 <_ZN9__gnu_cxx12__to_xstringINSt7__cxx1112basic_stringIcSt11char_traitsIcESaIcEEEcEET_PFiPT0_mPKS8_St9__va_listEmSB_z+0xec>
  404fd4:	aa1503e1 	mov	x1, x21
  404fd8:	aa1603e2 	mov	x2, x22
  404fdc:	97fff311 	bl	401c20 <memcpy@plt>
  404fe0:	f85f83a8 	ldur	x8, [x29, #-8]
  404fe4:	f9400289 	ldr	x9, [x20]
  404fe8:	f9000688 	str	x8, [x20, #8]
  404fec:	3828693f 	strb	wzr, [x9, x8]
  404ff0:	910003bf 	mov	sp, x29
  404ff4:	a9434ff4 	ldp	x20, x19, [sp, #48]
  404ff8:	a94257f6 	ldp	x22, x21, [sp, #32]
  404ffc:	f9400bfc 	ldr	x28, [sp, #16]
  405000:	a8c47bfd 	ldp	x29, x30, [sp], #64
  405004:	d65f03c0 	ret

0000000000405008 <_ZN2cl4sycl23invalid_parameter_errorC2EPKci>:
  405008:	d10183ff 	sub	sp, sp, #0x60
  40500c:	a9027bfd 	stp	x29, x30, [sp, #32]
  405010:	f9001bf7 	str	x23, [sp, #48]
  405014:	a90457f6 	stp	x22, x21, [sp, #64]
  405018:	a9054ff4 	stp	x20, x19, [sp, #80]
  40501c:	910083fd 	add	x29, sp, #0x20
  405020:	910003e8 	mov	x8, sp
  405024:	91004117 	add	x23, x8, #0x10
  405028:	f90003f7 	str	x23, [sp]
  40502c:	b40005e1 	cbz	x1, 4050e8 <_ZN2cl4sycl23invalid_parameter_errorC2EPKci+0xe0>
  405030:	aa0003f4 	mov	x20, x0
  405034:	aa0103e0 	mov	x0, x1
  405038:	2a0203f3 	mov	w19, w2
  40503c:	aa0103f5 	mov	x21, x1
  405040:	97fff310 	bl	401c80 <strlen@plt>
  405044:	aa0003f6 	mov	x22, x0
  405048:	f100401f 	cmp	x0, #0x10
  40504c:	f9000fa0 	str	x0, [x29, #24]
  405050:	54000143 	b.cc	405078 <_ZN2cl4sycl23invalid_parameter_errorC2EPKci+0x70>  // b.lo, b.ul, b.last
  405054:	910003e0 	mov	x0, sp
  405058:	910063a1 	add	x1, x29, #0x18
  40505c:	aa1f03e2 	mov	x2, xzr
  405060:	97fff3c0 	bl	401f60 <_ZNSt7__cxx1112basic_stringIcSt11char_traitsIcESaIcEE9_M_createERmm@plt>
  405064:	f9400fa8 	ldr	x8, [x29, #24]
  405068:	f90003e0 	str	x0, [sp]
  40506c:	f9000be8 	str	x8, [sp, #16]
  405070:	b5000096 	cbnz	x22, 405080 <_ZN2cl4sycl23invalid_parameter_errorC2EPKci+0x78>
  405074:	1400000b 	b	4050a0 <_ZN2cl4sycl23invalid_parameter_errorC2EPKci+0x98>
  405078:	aa1703e0 	mov	x0, x23
  40507c:	b4000136 	cbz	x22, 4050a0 <_ZN2cl4sycl23invalid_parameter_errorC2EPKci+0x98>
  405080:	f10006df 	cmp	x22, #0x1
  405084:	54000081 	b.ne	405094 <_ZN2cl4sycl23invalid_parameter_errorC2EPKci+0x8c>  // b.any
  405088:	394002a8 	ldrb	w8, [x21]
  40508c:	39000008 	strb	w8, [x0]
  405090:	14000004 	b	4050a0 <_ZN2cl4sycl23invalid_parameter_errorC2EPKci+0x98>
  405094:	aa1503e1 	mov	x1, x21
  405098:	aa1603e2 	mov	x2, x22
  40509c:	97fff2e1 	bl	401c20 <memcpy@plt>
  4050a0:	f9400fa8 	ldr	x8, [x29, #24]
  4050a4:	f94003e9 	ldr	x9, [sp]
  4050a8:	f90007e8 	str	x8, [sp, #8]
  4050ac:	3828693f 	strb	wzr, [x9, x8]
  4050b0:	910003e1 	mov	x1, sp
  4050b4:	aa1403e0 	mov	x0, x20
  4050b8:	2a1303e2 	mov	w2, w19
  4050bc:	94000016 	bl	405114 <_ZN2cl4sycl23invalid_parameter_errorC2ERKNSt7__cxx1112basic_stringIcSt11char_traitsIcESaIcEEEi>
  4050c0:	f94003e0 	ldr	x0, [sp]
  4050c4:	eb17001f 	cmp	x0, x23
  4050c8:	54000040 	b.eq	4050d0 <_ZN2cl4sycl23invalid_parameter_errorC2EPKci+0xc8>  // b.none
  4050cc:	97fff339 	bl	401db0 <_ZdlPv@plt>
  4050d0:	a9454ff4 	ldp	x20, x19, [sp, #80]
  4050d4:	a94457f6 	ldp	x22, x21, [sp, #64]
  4050d8:	a9427bfd 	ldp	x29, x30, [sp, #32]
  4050dc:	f9401bf7 	ldr	x23, [sp, #48]
  4050e0:	910183ff 	add	sp, sp, #0x60
  4050e4:	d65f03c0 	ret
  4050e8:	b0000000 	adrp	x0, 406000 <_IO_stdin_used+0xa0>
  4050ec:	910b5800 	add	x0, x0, #0x2d6
  4050f0:	97fff320 	bl	401d70 <_ZSt19__throw_logic_errorPKc@plt>
  4050f4:	f94003e8 	ldr	x8, [sp]
  4050f8:	aa0003f3 	mov	x19, x0
  4050fc:	eb17011f 	cmp	x8, x23
  405100:	54000060 	b.eq	40510c <_ZN2cl4sycl23invalid_parameter_errorC2EPKci+0x104>  // b.none
  405104:	aa0803e0 	mov	x0, x8
  405108:	97fff32a 	bl	401db0 <_ZdlPv@plt>
  40510c:	aa1303e0 	mov	x0, x19
  405110:	97fff390 	bl	401f50 <_Unwind_Resume@plt>

0000000000405114 <_ZN2cl4sycl23invalid_parameter_errorC2ERKNSt7__cxx1112basic_stringIcSt11char_traitsIcESaIcEEEi>:
  405114:	d10103ff 	sub	sp, sp, #0x40
  405118:	a9017bfd 	stp	x29, x30, [sp, #16]
  40511c:	a90257f6 	stp	x22, x21, [sp, #32]
  405120:	a9034ff4 	stp	x20, x19, [sp, #48]
  405124:	910043fd 	add	x29, sp, #0x10
  405128:	aa0003f3 	mov	x19, x0
  40512c:	528000c0 	mov	w0, #0x6                   	// #6
  405130:	2a0203f4 	mov	w20, w2
  405134:	aa0103f5 	mov	x21, x1
  405138:	97fff2de 	bl	401cb0 <_ZN2cl4sycl15make_error_codeENS0_4errcE@plt>
  40513c:	aa0003e2 	mov	x2, x0
  405140:	aa0103e3 	mov	x3, x1
  405144:	a9007fff 	stp	xzr, xzr, [sp]
  405148:	910003e5 	mov	x5, sp
  40514c:	aa1303e0 	mov	x0, x19
  405150:	aa0203e1 	mov	x1, x2
  405154:	aa0303e2 	mov	x2, x3
  405158:	aa1503e3 	mov	x3, x21
  40515c:	2a1403e4 	mov	w4, w20
  405160:	97fffd95 	bl	4047b4 <_ZN2cl4sycl9exceptionC2ESt10error_codeRKNSt7__cxx1112basic_stringIcSt11char_traitsIcESaIcEEEiSt10shared_ptrINS0_7contextEE>
  405164:	f94007f4 	ldr	x20, [sp, #8]
  405168:	b4000434 	cbz	x20, 4051ec <_ZN2cl4sycl23invalid_parameter_errorC2ERKNSt7__cxx1112basic_stringIcSt11char_traitsIcESaIcEEEi+0xd8>
  40516c:	d00000b5 	adrp	x21, 41b000 <GCC_except_table33+0xff8c>
  405170:	91002288 	add	x8, x20, #0x8
  405174:	f947eab5 	ldr	x21, [x21, #4048]
  405178:	b4000115 	cbz	x21, 405198 <_ZN2cl4sycl23invalid_parameter_errorC2ERKNSt7__cxx1112basic_stringIcSt11char_traitsIcESaIcEEEi+0x84>
  40517c:	885ffd09 	ldaxr	w9, [x8]
  405180:	5100052a 	sub	w10, w9, #0x1
  405184:	880bfd0a 	stlxr	w11, w10, [x8]
  405188:	35ffffab 	cbnz	w11, 40517c <_ZN2cl4sycl23invalid_parameter_errorC2ERKNSt7__cxx1112basic_stringIcSt11char_traitsIcESaIcEEEi+0x68>
  40518c:	7100053f 	cmp	w9, #0x1
  405190:	540000e0 	b.eq	4051ac <_ZN2cl4sycl23invalid_parameter_errorC2ERKNSt7__cxx1112basic_stringIcSt11char_traitsIcESaIcEEEi+0x98>  // b.none
  405194:	14000016 	b	4051ec <_ZN2cl4sycl23invalid_parameter_errorC2ERKNSt7__cxx1112basic_stringIcSt11char_traitsIcESaIcEEEi+0xd8>
  405198:	b9400109 	ldr	w9, [x8]
  40519c:	5100052a 	sub	w10, w9, #0x1
  4051a0:	b900010a 	str	w10, [x8]
  4051a4:	7100053f 	cmp	w9, #0x1
  4051a8:	54000221 	b.ne	4051ec <_ZN2cl4sycl23invalid_parameter_errorC2ERKNSt7__cxx1112basic_stringIcSt11char_traitsIcESaIcEEEi+0xd8>  // b.any
  4051ac:	aa1403f6 	mov	x22, x20
  4051b0:	aa1403e0 	mov	x0, x20
  4051b4:	f840c6c8 	ldr	x8, [x22], #12
  4051b8:	f9400908 	ldr	x8, [x8, #16]
  4051bc:	d63f0100 	blr	x8
  4051c0:	b4000275 	cbz	x21, 40520c <_ZN2cl4sycl23invalid_parameter_errorC2ERKNSt7__cxx1112basic_stringIcSt11char_traitsIcESaIcEEEi+0xf8>
  4051c4:	885ffec8 	ldaxr	w8, [x22]
  4051c8:	51000509 	sub	w9, w8, #0x1
  4051cc:	880afec9 	stlxr	w10, w9, [x22]
  4051d0:	35ffffaa 	cbnz	w10, 4051c4 <_ZN2cl4sycl23invalid_parameter_errorC2ERKNSt7__cxx1112basic_stringIcSt11char_traitsIcESaIcEEEi+0xb0>
  4051d4:	7100051f 	cmp	w8, #0x1
  4051d8:	540000a1 	b.ne	4051ec <_ZN2cl4sycl23invalid_parameter_errorC2ERKNSt7__cxx1112basic_stringIcSt11char_traitsIcESaIcEEEi+0xd8>  // b.any
  4051dc:	f9400288 	ldr	x8, [x20]
  4051e0:	aa1403e0 	mov	x0, x20
  4051e4:	f9400d08 	ldr	x8, [x8, #24]
  4051e8:	d63f0100 	blr	x8
  4051ec:	b0000008 	adrp	x8, 406000 <_IO_stdin_used+0xa0>
  4051f0:	9118a108 	add	x8, x8, #0x628
  4051f4:	f9000268 	str	x8, [x19]
  4051f8:	a9434ff4 	ldp	x20, x19, [sp, #48]
  4051fc:	a94257f6 	ldp	x22, x21, [sp, #32]
  405200:	a9417bfd 	ldp	x29, x30, [sp, #16]
  405204:	910103ff 	add	sp, sp, #0x40
  405208:	d65f03c0 	ret
  40520c:	b94002c8 	ldr	w8, [x22]
  405210:	51000509 	sub	w9, w8, #0x1
  405214:	b90002c9 	str	w9, [x22]
  405218:	7100051f 	cmp	w8, #0x1
  40521c:	54fffe00 	b.eq	4051dc <_ZN2cl4sycl23invalid_parameter_errorC2ERKNSt7__cxx1112basic_stringIcSt11char_traitsIcESaIcEEEi+0xc8>  // b.none
  405220:	17fffff3 	b	4051ec <_ZN2cl4sycl23invalid_parameter_errorC2ERKNSt7__cxx1112basic_stringIcSt11char_traitsIcESaIcEEEi+0xd8>
  405224:	f94007f4 	ldr	x20, [sp, #8]
  405228:	aa0003f3 	mov	x19, x0
  40522c:	b40004b4 	cbz	x20, 4052c0 <_ZN2cl4sycl23invalid_parameter_errorC2ERKNSt7__cxx1112basic_stringIcSt11char_traitsIcESaIcEEEi+0x1ac>
  405230:	d00000b5 	adrp	x21, 41b000 <GCC_except_table33+0xff8c>
  405234:	91002288 	add	x8, x20, #0x8
  405238:	f947eab5 	ldr	x21, [x21, #4048]
  40523c:	b40000d5 	cbz	x21, 405254 <_ZN2cl4sycl23invalid_parameter_errorC2ERKNSt7__cxx1112basic_stringIcSt11char_traitsIcESaIcEEEi+0x140>
  405240:	885ffd09 	ldaxr	w9, [x8]
  405244:	5100052a 	sub	w10, w9, #0x1
  405248:	880bfd0a 	stlxr	w11, w10, [x8]
  40524c:	35ffffab 	cbnz	w11, 405240 <_ZN2cl4sycl23invalid_parameter_errorC2ERKNSt7__cxx1112basic_stringIcSt11char_traitsIcESaIcEEEi+0x12c>
  405250:	14000004 	b	405260 <_ZN2cl4sycl23invalid_parameter_errorC2ERKNSt7__cxx1112basic_stringIcSt11char_traitsIcESaIcEEEi+0x14c>
  405254:	b9400109 	ldr	w9, [x8]
  405258:	5100052a 	sub	w10, w9, #0x1
  40525c:	b900010a 	str	w10, [x8]
  405260:	7100053f 	cmp	w9, #0x1
  405264:	540002e1 	b.ne	4052c0 <_ZN2cl4sycl23invalid_parameter_errorC2ERKNSt7__cxx1112basic_stringIcSt11char_traitsIcESaIcEEEi+0x1ac>  // b.any
  405268:	aa1403e8 	mov	x8, x20
  40526c:	aa1403e0 	mov	x0, x20
  405270:	f840c509 	ldr	x9, [x8], #12
  405274:	aa0803f6 	mov	x22, x8
  405278:	f9400928 	ldr	x8, [x9, #16]
  40527c:	d63f0100 	blr	x8
  405280:	b40000f5 	cbz	x21, 40529c <_ZN2cl4sycl23invalid_parameter_errorC2ERKNSt7__cxx1112basic_stringIcSt11char_traitsIcESaIcEEEi+0x188>
  405284:	aa1603e9 	mov	x9, x22
  405288:	885ffd28 	ldaxr	w8, [x9]
  40528c:	5100050a 	sub	w10, w8, #0x1
  405290:	880bfd2a 	stlxr	w11, w10, [x9]
  405294:	35ffffab 	cbnz	w11, 405288 <_ZN2cl4sycl23invalid_parameter_errorC2ERKNSt7__cxx1112basic_stringIcSt11char_traitsIcESaIcEEEi+0x174>
  405298:	14000004 	b	4052a8 <_ZN2cl4sycl23invalid_parameter_errorC2ERKNSt7__cxx1112basic_stringIcSt11char_traitsIcESaIcEEEi+0x194>
  40529c:	b94002c8 	ldr	w8, [x22]
  4052a0:	51000509 	sub	w9, w8, #0x1
  4052a4:	b90002c9 	str	w9, [x22]
  4052a8:	7100051f 	cmp	w8, #0x1
  4052ac:	540000a1 	b.ne	4052c0 <_ZN2cl4sycl23invalid_parameter_errorC2ERKNSt7__cxx1112basic_stringIcSt11char_traitsIcESaIcEEEi+0x1ac>  // b.any
  4052b0:	f9400288 	ldr	x8, [x20]
  4052b4:	aa1403e0 	mov	x0, x20
  4052b8:	f9400d08 	ldr	x8, [x8, #24]
  4052bc:	d63f0100 	blr	x8
  4052c0:	aa1303e0 	mov	x0, x19
  4052c4:	97fff323 	bl	401f50 <_Unwind_Resume@plt>

00000000004052c8 <_ZN2cl4sycl23invalid_parameter_errorD0Ev>:
  4052c8:	a9bd7bfd 	stp	x29, x30, [sp, #-48]!
  4052cc:	a90157f6 	stp	x22, x21, [sp, #16]
  4052d0:	a9024ff4 	stp	x20, x19, [sp, #32]
  4052d4:	910003fd 	mov	x29, sp
  4052d8:	aa0003f3 	mov	x19, x0
  4052dc:	f9401c14 	ldr	x20, [x0, #56]
  4052e0:	d00000a8 	adrp	x8, 41b000 <GCC_except_table33+0xff8c>
  4052e4:	91354108 	add	x8, x8, #0xd50
  4052e8:	f9000008 	str	x8, [x0]
  4052ec:	b4000434 	cbz	x20, 405370 <_ZN2cl4sycl23invalid_parameter_errorD0Ev+0xa8>
  4052f0:	d00000b5 	adrp	x21, 41b000 <GCC_except_table33+0xff8c>
  4052f4:	91002288 	add	x8, x20, #0x8
  4052f8:	f947eab5 	ldr	x21, [x21, #4048]
  4052fc:	b4000115 	cbz	x21, 40531c <_ZN2cl4sycl23invalid_parameter_errorD0Ev+0x54>
  405300:	885ffd09 	ldaxr	w9, [x8]
  405304:	5100052a 	sub	w10, w9, #0x1
  405308:	880bfd0a 	stlxr	w11, w10, [x8]
  40530c:	35ffffab 	cbnz	w11, 405300 <_ZN2cl4sycl23invalid_parameter_errorD0Ev+0x38>
  405310:	7100053f 	cmp	w9, #0x1
  405314:	540000e0 	b.eq	405330 <_ZN2cl4sycl23invalid_parameter_errorD0Ev+0x68>  // b.none
  405318:	14000016 	b	405370 <_ZN2cl4sycl23invalid_parameter_errorD0Ev+0xa8>
  40531c:	b9400109 	ldr	w9, [x8]
  405320:	5100052a 	sub	w10, w9, #0x1
  405324:	b900010a 	str	w10, [x8]
  405328:	7100053f 	cmp	w9, #0x1
  40532c:	54000221 	b.ne	405370 <_ZN2cl4sycl23invalid_parameter_errorD0Ev+0xa8>  // b.any
  405330:	aa1403f6 	mov	x22, x20
  405334:	aa1403e0 	mov	x0, x20
  405338:	f840c6c8 	ldr	x8, [x22], #12
  40533c:	f9400908 	ldr	x8, [x8, #16]
  405340:	d63f0100 	blr	x8
  405344:	b40002f5 	cbz	x21, 4053a0 <_ZN2cl4sycl23invalid_parameter_errorD0Ev+0xd8>
  405348:	885ffec8 	ldaxr	w8, [x22]
  40534c:	51000509 	sub	w9, w8, #0x1
  405350:	880afec9 	stlxr	w10, w9, [x22]
  405354:	35ffffaa 	cbnz	w10, 405348 <_ZN2cl4sycl23invalid_parameter_errorD0Ev+0x80>
  405358:	7100051f 	cmp	w8, #0x1
  40535c:	540000a1 	b.ne	405370 <_ZN2cl4sycl23invalid_parameter_errorD0Ev+0xa8>  // b.any
  405360:	f9400288 	ldr	x8, [x20]
  405364:	aa1403e0 	mov	x0, x20
  405368:	f9400d08 	ldr	x8, [x8, #24]
  40536c:	d63f0100 	blr	x8
  405370:	f9400660 	ldr	x0, [x19, #8]
  405374:	91006268 	add	x8, x19, #0x18
  405378:	eb08001f 	cmp	x0, x8
  40537c:	54000040 	b.eq	405384 <_ZN2cl4sycl23invalid_parameter_errorD0Ev+0xbc>  // b.none
  405380:	97fff28c 	bl	401db0 <_ZdlPv@plt>
  405384:	aa1303e0 	mov	x0, x19
  405388:	97fff2fa 	bl	401f70 <_ZNSt9exceptionD2Ev@plt>
  40538c:	aa1303e0 	mov	x0, x19
  405390:	a9424ff4 	ldp	x20, x19, [sp, #32]
  405394:	a94157f6 	ldp	x22, x21, [sp, #16]
  405398:	a8c37bfd 	ldp	x29, x30, [sp], #48
  40539c:	17fff285 	b	401db0 <_ZdlPv@plt>
  4053a0:	b94002c8 	ldr	w8, [x22]
  4053a4:	51000509 	sub	w9, w8, #0x1
  4053a8:	b90002c9 	str	w9, [x22]
  4053ac:	7100051f 	cmp	w8, #0x1
  4053b0:	54fffd80 	b.eq	405360 <_ZN2cl4sycl23invalid_parameter_errorD0Ev+0x98>  // b.none
  4053b4:	17ffffef 	b	405370 <_ZN2cl4sycl23invalid_parameter_errorD0Ev+0xa8>

00000000004053b8 <_ZN2cl4sycl6detail10HostKernelISt8functionIFvRKNS0_7nd_itemILi2EEEEES5_Li2EE4callERKNS1_8NDRDescTEPNS1_17HostProfilingInfoE>:
  4053b8:	d10383ff 	sub	sp, sp, #0xe0
  4053bc:	a90c7bfd 	stp	x29, x30, [sp, #192]
  4053c0:	a90d4ff4 	stp	x20, x19, [sp, #208]
  4053c4:	910303fd 	add	x29, sp, #0xc0
  4053c8:	ad418420 	ldp	q0, q1, [x1, #48]
  4053cc:	910143e8 	add	x8, sp, #0x50
  4053d0:	aa0203f4 	mov	x20, x2
  4053d4:	aa0003f3 	mov	x19, x0
  4053d8:	3dc01422 	ldr	q2, [x1, #80]
  4053dc:	ad401023 	ldp	q3, q4, [x1]
  4053e0:	ad020901 	stp	q1, q2, [x8, #64]
  4053e4:	f9403029 	ldr	x9, [x1, #96]
  4053e8:	ad0293e3 	stp	q3, q4, [sp, #80]
  4053ec:	3dc00821 	ldr	q1, [x1, #32]
  4053f0:	f9400028 	ldr	x8, [x1]
  4053f4:	f9005be9 	str	x9, [sp, #176]
  4053f8:	ad0383e1 	stp	q1, q0, [sp, #112]
  4053fc:	b50001c8 	cbnz	x8, 405434 <_ZN2cl4sycl6detail10HostKernelISt8functionIFvRKNS0_7nd_itemILi2EEEEES5_Li2EE4callERKNS1_8NDRDescTEPNS1_17HostProfilingInfoE+0x7c>
  405400:	f9402428 	ldr	x8, [x1, #72]
  405404:	b4000188 	cbz	x8, 405434 <_ZN2cl4sycl6detail10HostKernelISt8functionIFvRKNS0_7nd_itemILi2EEEEES5_Li2EE4callERKNS1_8NDRDescTEPNS1_17HostProfilingInfoE+0x7c>
  405408:	52800029 	mov	w9, #0x1                   	// #1
  40540c:	3dc01421 	ldr	q1, [x1, #80]
  405410:	b9406021 	ldr	w1, [x1, #96]
  405414:	910143e0 	add	x0, sp, #0x50
  405418:	910023e2 	add	x2, sp, #0x8
  40541c:	f90007e8 	str	x8, [sp, #8]
  405420:	4e080d20 	dup	v0.2d, x9
  405424:	a9037fe9 	stp	x9, xzr, [sp, #48]
  405428:	a9047fff 	stp	xzr, xzr, [sp, #64]
  40542c:	ad0083e1 	stp	q1, q0, [sp, #16]
  405430:	94000058 	bl	405590 <_ZN2cl4sycl6detail8NDRDescT3setEiNS0_8nd_rangeILi3EEE>
  405434:	f94037e8 	ldr	x8, [sp, #104]
  405438:	b40001a8 	cbz	x8, 40546c <_ZN2cl4sycl6detail10HostKernelISt8functionIFvRKNS0_7nd_itemILi2EEEEES5_Li2EE4callERKNS1_8NDRDescTEPNS1_17HostProfilingInfoE+0xb4>
  40543c:	b40004f4 	cbz	x20, 4054d8 <_ZN2cl4sycl6detail10HostKernelISt8functionIFvRKNS0_7nd_itemILi2EEEEES5_Li2EE4callERKNS1_8NDRDescTEPNS1_17HostProfilingInfoE+0x120>
  405440:	aa1403e0 	mov	x0, x20
  405444:	97fff287 	bl	401e60 <_ZN2cl4sycl6detail17HostProfilingInfo5startEv@plt>
  405448:	910143e1 	add	x1, sp, #0x50
  40544c:	aa1303e0 	mov	x0, x19
  405450:	940000a4 	bl	4056e0 <_ZN2cl4sycl6detail10HostKernelISt8functionIFvRKNS0_7nd_itemILi2EEEEES5_Li2EE9runOnHostIS5_EENSt9enable_ifIXsr3std7is_sameIT_S5_EE5valueEvE4typeERKNS1_8NDRDescTE>
  405454:	aa1403e0 	mov	x0, x20
  405458:	97fff286 	bl	401e70 <_ZN2cl4sycl6detail17HostProfilingInfo3endEv@plt>
  40545c:	a94d4ff4 	ldp	x20, x19, [sp, #208]
  405460:	a94c7bfd 	ldp	x29, x30, [sp, #192]
  405464:	910383ff 	add	sp, sp, #0xe0
  405468:	d65f03c0 	ret
  40546c:	f9405be8 	ldr	x8, [sp, #176]
  405470:	b4fffe68 	cbz	x8, 40543c <_ZN2cl4sycl6detail10HostKernelISt8functionIFvRKNS0_7nd_itemILi2EEEEES5_Li2EE4callERKNS1_8NDRDescTEPNS1_17HostProfilingInfoE+0x84>
  405474:	52800029 	mov	w9, #0x1                   	// #1
  405478:	f100051f 	cmp	x8, #0x1
  40547c:	f90037e9 	str	x9, [sp, #104]
  405480:	54fffde0 	b.eq	40543c <_ZN2cl4sycl6detail10HostKernelISt8functionIFvRKNS0_7nd_itemILi2EEEEES5_Li2EE4callERKNS1_8NDRDescTEPNS1_17HostProfilingInfoE+0x84>  // b.none
  405484:	52800029 	mov	w9, #0x1                   	// #1
  405488:	f1000d1f 	cmp	x8, #0x3
  40548c:	f9003be9 	str	x9, [sp, #112]
  405490:	54fffd63 	b.cc	40543c <_ZN2cl4sycl6detail10HostKernelISt8functionIFvRKNS0_7nd_itemILi2EEEEES5_Li2EE4callERKNS1_8NDRDescTEPNS1_17HostProfilingInfoE+0x84>  // b.lo, b.ul, b.last
  405494:	52800029 	mov	w9, #0x1                   	// #1
  405498:	f1000d1f 	cmp	x8, #0x3
  40549c:	f9003fe9 	str	x9, [sp, #120]
  4054a0:	54fffce0 	b.eq	40543c <_ZN2cl4sycl6detail10HostKernelISt8functionIFvRKNS0_7nd_itemILi2EEEEES5_Li2EE4callERKNS1_8NDRDescTEPNS1_17HostProfilingInfoE+0x84>  // b.none
  4054a4:	52800800 	mov	w0, #0x40                  	// #64
  4054a8:	97fff212 	bl	401cf0 <__cxa_allocate_exception@plt>
  4054ac:	aa0003f3 	mov	x19, x0
  4054b0:	b0000001 	adrp	x1, 406000 <_IO_stdin_used+0xa0>
  4054b4:	910d7021 	add	x1, x1, #0x35c
  4054b8:	128003a2 	mov	w2, #0xffffffe2            	// #-30
  4054bc:	97fffed3 	bl	405008 <_ZN2cl4sycl23invalid_parameter_errorC2EPKci>
  4054c0:	b0000001 	adrp	x1, 406000 <_IO_stdin_used+0xa0>
  4054c4:	91180021 	add	x1, x1, #0x600
  4054c8:	f0ffffe2 	adrp	x2, 404000 <_ZN2cl4sycl13malloc_sharedIfEEPT_mRKNS0_5queueERKNS0_13property_listENS0_6detail13code_locationE+0xd0>
  4054cc:	911b3042 	add	x2, x2, #0x6cc
  4054d0:	aa1303e0 	mov	x0, x19
  4054d4:	97fff293 	bl	401f20 <__cxa_throw@plt>
  4054d8:	910143e1 	add	x1, sp, #0x50
  4054dc:	aa1303e0 	mov	x0, x19
  4054e0:	94000080 	bl	4056e0 <_ZN2cl4sycl6detail10HostKernelISt8functionIFvRKNS0_7nd_itemILi2EEEEES5_Li2EE9runOnHostIS5_EENSt9enable_ifIXsr3std7is_sameIT_S5_EE5valueEvE4typeERKNS1_8NDRDescTE>
  4054e4:	a94d4ff4 	ldp	x20, x19, [sp, #208]
  4054e8:	a94c7bfd 	ldp	x29, x30, [sp, #192]
  4054ec:	910383ff 	add	sp, sp, #0xe0
  4054f0:	d65f03c0 	ret
  4054f4:	aa0003f4 	mov	x20, x0
  4054f8:	aa1303e0 	mov	x0, x19
  4054fc:	97fff221 	bl	401d80 <__cxa_free_exception@plt>
  405500:	aa1403e0 	mov	x0, x20
  405504:	97fff293 	bl	401f50 <_Unwind_Resume@plt>

0000000000405508 <_ZN2cl4sycl6detail10HostKernelISt8functionIFvRKNS0_7nd_itemILi2EEEEES5_Li2EE6getPtrEv>:
  405508:	91002000 	add	x0, x0, #0x8
  40550c:	d65f03c0 	ret

0000000000405510 <_ZN2cl4sycl6detail10HostKernelISt8functionIFvRKNS0_7nd_itemILi2EEEEES5_Li2EED2Ev>:
  405510:	a9bf7bfd 	stp	x29, x30, [sp, #-16]!
  405514:	910003fd 	mov	x29, sp
  405518:	f9400c08 	ldr	x8, [x0, #24]
  40551c:	b0000009 	adrp	x9, 406000 <_IO_stdin_used+0xa0>
  405520:	91194129 	add	x9, x9, #0x650
  405524:	f9000009 	str	x9, [x0]
  405528:	b40000a8 	cbz	x8, 40553c <_ZN2cl4sycl6detail10HostKernelISt8functionIFvRKNS0_7nd_itemILi2EEEEES5_Li2EED2Ev+0x2c>
  40552c:	91002000 	add	x0, x0, #0x8
  405530:	aa0003e1 	mov	x1, x0
  405534:	52800062 	mov	w2, #0x3                   	// #3
  405538:	d63f0100 	blr	x8
  40553c:	a8c17bfd 	ldp	x29, x30, [sp], #16
  405540:	d65f03c0 	ret
  405544:	97fffb5a 	bl	4042ac <__clang_call_terminate>

0000000000405548 <_ZN2cl4sycl6detail10HostKernelISt8functionIFvRKNS0_7nd_itemILi2EEEEES5_Li2EED0Ev>:
  405548:	a9be7bfd 	stp	x29, x30, [sp, #-32]!
  40554c:	f9000bf3 	str	x19, [sp, #16]
  405550:	910003fd 	mov	x29, sp
  405554:	aa0003f3 	mov	x19, x0
  405558:	f9400c08 	ldr	x8, [x0, #24]
  40555c:	b0000009 	adrp	x9, 406000 <_IO_stdin_used+0xa0>
  405560:	91194129 	add	x9, x9, #0x650
  405564:	f9000009 	str	x9, [x0]
  405568:	b40000a8 	cbz	x8, 40557c <_ZN2cl4sycl6detail10HostKernelISt8functionIFvRKNS0_7nd_itemILi2EEEEES5_Li2EED0Ev+0x34>
  40556c:	91002260 	add	x0, x19, #0x8
  405570:	aa0003e1 	mov	x1, x0
  405574:	52800062 	mov	w2, #0x3                   	// #3
  405578:	d63f0100 	blr	x8
  40557c:	aa1303e0 	mov	x0, x19
  405580:	f9400bf3 	ldr	x19, [sp, #16]
  405584:	a8c27bfd 	ldp	x29, x30, [sp], #32
  405588:	17fff20a 	b	401db0 <_ZdlPv@plt>
  40558c:	97fffb48 	bl	4042ac <__clang_call_terminate>

0000000000405590 <_ZN2cl4sycl6detail8NDRDescT3setEiNS0_8nd_rangeILi3EEE>:
  405590:	a9be7bfd 	stp	x29, x30, [sp, #-32]!
  405594:	a9014ff4 	stp	x20, x19, [sp, #16]
  405598:	910003fd 	mov	x29, sp
  40559c:	7100043f 	cmp	w1, #0x1
  4055a0:	5400026b 	b.lt	4055ec <_ZN2cl4sycl6detail8NDRDescT3setEiNS0_8nd_rangeILi3EEE+0x5c>  // b.tstop
  4055a4:	f9400048 	ldr	x8, [x2]
  4055a8:	7100043f 	cmp	w1, #0x1
  4055ac:	f9000008 	str	x8, [x0]
  4055b0:	f9400c48 	ldr	x8, [x2, #24]
  4055b4:	f9000c08 	str	x8, [x0, #24]
  4055b8:	f9401848 	ldr	x8, [x2, #48]
  4055bc:	f900241f 	str	xzr, [x0, #72]
  4055c0:	f9001808 	str	x8, [x0, #48]
  4055c4:	54000140 	b.eq	4055ec <_ZN2cl4sycl6detail8NDRDescT3setEiNS0_8nd_rangeILi3EEE+0x5c>  // b.none
  4055c8:	f9400448 	ldr	x8, [x2, #8]
  4055cc:	7100083f 	cmp	w1, #0x2
  4055d0:	f9000408 	str	x8, [x0, #8]
  4055d4:	f9401048 	ldr	x8, [x2, #32]
  4055d8:	f9001008 	str	x8, [x0, #32]
  4055dc:	f9401c48 	ldr	x8, [x2, #56]
  4055e0:	f900281f 	str	xzr, [x0, #80]
  4055e4:	f9001c08 	str	x8, [x0, #56]
  4055e8:	54000341 	b.ne	405650 <_ZN2cl4sycl6detail8NDRDescT3setEiNS0_8nd_rangeILi3EEE+0xc0>  // b.any
  4055ec:	71000c3f 	cmp	w1, #0x3
  4055f0:	52800069 	mov	w9, #0x3                   	// #3
  4055f4:	8b214c0a 	add	x10, x0, w1, uxtw #3
  4055f8:	2a0103e8 	mov	w8, w1
  4055fc:	1a898029 	csel	w9, w1, w9, hi  // hi = pmore
  405600:	9100c14a 	add	x10, x10, #0x30
  405604:	5280002b 	mov	w11, #0x1                   	// #1
  405608:	eb08013f 	cmp	x9, x8
  40560c:	54000440 	b.eq	405694 <_ZN2cl4sycl6detail8NDRDescT3setEiNS0_8nd_rangeILi3EEE+0x104>  // b.none
  405610:	f81d014b 	stur	x11, [x10, #-48]
  405614:	91000508 	add	x8, x8, #0x1
  405618:	f9400c0c 	ldr	x12, [x0, #24]
  40561c:	f900015f 	str	xzr, [x10]
  405620:	f9000d5f 	str	xzr, [x10, #24]
  405624:	f100019f 	cmp	x12, #0x0
  405628:	1a9f07ec 	cset	w12, ne  // ne = any
  40562c:	f1000d1f 	cmp	x8, #0x3
  405630:	f81e814c 	stur	x12, [x10, #-24]
  405634:	9100214a 	add	x10, x10, #0x8
  405638:	54fffe81 	b.ne	405608 <_ZN2cl4sycl6detail8NDRDescT3setEiNS0_8nd_rangeILi3EEE+0x78>  // b.any
  40563c:	93407c28 	sxtw	x8, w1
  405640:	f9003008 	str	x8, [x0, #96]
  405644:	a9414ff4 	ldp	x20, x19, [sp, #16]
  405648:	a8c27bfd 	ldp	x29, x30, [sp], #32
  40564c:	d65f03c0 	ret
  405650:	f9400848 	ldr	x8, [x2, #16]
  405654:	71000c3f 	cmp	w1, #0x3
  405658:	f9000808 	str	x8, [x0, #16]
  40565c:	f9401448 	ldr	x8, [x2, #40]
  405660:	f9001408 	str	x8, [x0, #40]
  405664:	f9402048 	ldr	x8, [x2, #64]
  405668:	f9002c1f 	str	xzr, [x0, #88]
  40566c:	f9002008 	str	x8, [x0, #64]
  405670:	54fffe60 	b.eq	40563c <_ZN2cl4sycl6detail8NDRDescT3setEiNS0_8nd_rangeILi3EEE+0xac>  // b.none
  405674:	52800800 	mov	w0, #0x40                  	// #64
  405678:	97fff19e 	bl	401cf0 <__cxa_allocate_exception@plt>
  40567c:	aa0003f3 	mov	x19, x0
  405680:	b0000001 	adrp	x1, 406000 <_IO_stdin_used+0xa0>
  405684:	910d7021 	add	x1, x1, #0x35c
  405688:	128003a2 	mov	w2, #0xffffffe2            	// #-30
  40568c:	97fffe5f 	bl	405008 <_ZN2cl4sycl23invalid_parameter_errorC2EPKci>
  405690:	14000008 	b	4056b0 <_ZN2cl4sycl6detail8NDRDescT3setEiNS0_8nd_rangeILi3EEE+0x120>
  405694:	52800800 	mov	w0, #0x40                  	// #64
  405698:	97fff196 	bl	401cf0 <__cxa_allocate_exception@plt>
  40569c:	aa0003f3 	mov	x19, x0
  4056a0:	b0000001 	adrp	x1, 406000 <_IO_stdin_used+0xa0>
  4056a4:	910d7021 	add	x1, x1, #0x35c
  4056a8:	128003a2 	mov	w2, #0xffffffe2            	// #-30
  4056ac:	97fffe57 	bl	405008 <_ZN2cl4sycl23invalid_parameter_errorC2EPKci>
  4056b0:	b0000001 	adrp	x1, 406000 <_IO_stdin_used+0xa0>
  4056b4:	91180021 	add	x1, x1, #0x600
  4056b8:	f0ffffe2 	adrp	x2, 404000 <_ZN2cl4sycl13malloc_sharedIfEEPT_mRKNS0_5queueERKNS0_13property_listENS0_6detail13code_locationE+0xd0>
  4056bc:	911b3042 	add	x2, x2, #0x6cc
  4056c0:	aa1303e0 	mov	x0, x19
  4056c4:	97fff217 	bl	401f20 <__cxa_throw@plt>
  4056c8:	14000001 	b	4056cc <_ZN2cl4sycl6detail8NDRDescT3setEiNS0_8nd_rangeILi3EEE+0x13c>
  4056cc:	aa0003f4 	mov	x20, x0
  4056d0:	aa1303e0 	mov	x0, x19
  4056d4:	97fff1ab 	bl	401d80 <__cxa_free_exception@plt>
  4056d8:	aa1403e0 	mov	x0, x20
  4056dc:	97fff21d 	bl	401f50 <_Unwind_Resume@plt>

00000000004056e0 <_ZN2cl4sycl6detail10HostKernelISt8functionIFvRKNS0_7nd_itemILi2EEEEES5_Li2EE9runOnHostIS5_EENSt9enable_ifIXsr3std7is_sameIT_S5_EE5valueEvE4typeERKNS1_8NDRDescTE>:
  4056e0:	d10303ff 	sub	sp, sp, #0xc0
  4056e4:	a90a7bfd 	stp	x29, x30, [sp, #160]
  4056e8:	a90b4ff4 	stp	x20, x19, [sp, #176]
  4056ec:	910283fd 	add	x29, sp, #0xa0
  4056f0:	aa0103e8 	mov	x8, x1
  4056f4:	f8418d0a 	ldr	x10, [x8, #24]!
  4056f8:	b400052a 	cbz	x10, 40579c <_ZN2cl4sycl6detail10HostKernelISt8functionIFvRKNS0_7nd_itemILi2EEEEES5_Li2EE9runOnHostIS5_EENSt9enable_ifIXsr3std7is_sameIT_S5_EE5valueEvE4typeERKNS1_8NDRDescTE+0xbc>
  4056fc:	f940002b 	ldr	x11, [x1]
  405700:	9aca0969 	udiv	x9, x11, x10
  405704:	9b0aad2a 	msub	x10, x9, x10, x11
  405708:	b50004aa 	cbnz	x10, 40579c <_ZN2cl4sycl6detail10HostKernelISt8functionIFvRKNS0_7nd_itemILi2EEEEES5_Li2EE9runOnHostIS5_EENSt9enable_ifIXsr3std7is_sameIT_S5_EE5valueEvE4typeERKNS1_8NDRDescTE+0xbc>
  40570c:	f940102a 	ldr	x10, [x1, #32]
  405710:	f9001be9 	str	x9, [sp, #48]
  405714:	b400044a 	cbz	x10, 40579c <_ZN2cl4sycl6detail10HostKernelISt8functionIFvRKNS0_7nd_itemILi2EEEEES5_Li2EE9runOnHostIS5_EENSt9enable_ifIXsr3std7is_sameIT_S5_EE5valueEvE4typeERKNS1_8NDRDescTE+0xbc>
  405718:	f940042b 	ldr	x11, [x1, #8]
  40571c:	9aca0969 	udiv	x9, x11, x10
  405720:	9b0aad2a 	msub	x10, x9, x10, x11
  405724:	b50003ca 	cbnz	x10, 40579c <_ZN2cl4sycl6detail10HostKernelISt8functionIFvRKNS0_7nd_itemILi2EEEEES5_Li2EE9runOnHostIS5_EENSt9enable_ifIXsr3std7is_sameIT_S5_EE5valueEvE4typeERKNS1_8NDRDescTE+0xbc>
  405728:	3dc00c22 	ldr	q2, [x1, #48]
  40572c:	f9001fe9 	str	x9, [sp, #56]
  405730:	3dc00101 	ldr	q1, [x8]
  405734:	52800028 	mov	w8, #0x1                   	// #1
  405738:	3dc00020 	ldr	q0, [x1]
  40573c:	910083e9 	add	x9, sp, #0x20
  405740:	9100c3ea 	add	x10, sp, #0x30
  405744:	910003eb 	mov	x11, sp
  405748:	f90033e0 	str	x0, [sp, #96]
  40574c:	d100e3a0 	sub	x0, x29, #0x38
  405750:	ad0003e2 	stp	q2, q0, [sp]
  405754:	4e080d00 	dup	v0.2d, x8
  405758:	910043e8 	add	x8, sp, #0x10
  40575c:	d10043a1 	sub	x1, x29, #0x10
  405760:	d10083a2 	sub	x2, x29, #0x20
  405764:	9100c3e3 	add	x3, sp, #0x30
  405768:	910103e4 	add	x4, sp, #0x40
  40576c:	d100c3a5 	sub	x5, x29, #0x30
  405770:	3d800be1 	str	q1, [sp, #32]
  405774:	a93f7fbf 	stp	xzr, xzr, [x29, #-16]
  405778:	3c9e03a0 	stur	q0, [x29, #-32]
  40577c:	a93d7fbf 	stp	xzr, xzr, [x29, #-48]
  405780:	a90427e8 	stp	x8, x9, [sp, #64]
  405784:	a9052fea 	stp	x10, x11, [sp, #80]
  405788:	94000103 	bl	405b94 <_ZN2cl4sycl6detail17NDLoopIterateImplILi2ELi1ENS0_5rangeEZNS1_10HostKernelISt8functionIFvRKNS0_7nd_itemILi2EEEEES7_Li2EE9runOnHostIS7_EENSt9enable_ifIXsr3std7is_sameIT_S7_EE5valueEvE4typeERKNS1_8NDRDescTEEUlRKNS0_2idILi2EEEE_S3_EC2ERKNS3_ILi2EEEST_ST_SP_RSR_>
  40578c:	a94b4ff4 	ldp	x20, x19, [sp, #176]
  405790:	a94a7bfd 	ldp	x29, x30, [sp, #160]
  405794:	910303ff 	add	sp, sp, #0xc0
  405798:	d65f03c0 	ret
  40579c:	52800800 	mov	w0, #0x40                  	// #64
  4057a0:	97fff154 	bl	401cf0 <__cxa_allocate_exception@plt>
  4057a4:	aa0003f3 	mov	x19, x0
  4057a8:	b0000001 	adrp	x1, 406000 <_IO_stdin_used+0xa0>
  4057ac:	910f5c21 	add	x1, x1, #0x3d7
  4057b0:	128006a2 	mov	w2, #0xffffffca            	// #-54
  4057b4:	9400000c 	bl	4057e4 <_ZN2cl4sycl14nd_range_errorC2EPKci>
  4057b8:	b0000001 	adrp	x1, 406000 <_IO_stdin_used+0xa0>
  4057bc:	911ca021 	add	x1, x1, #0x728
  4057c0:	f0ffffe2 	adrp	x2, 404000 <_ZN2cl4sycl13malloc_sharedIfEEPT_mRKNS0_5queueERKNS0_13property_listENS0_6detail13code_locationE+0xd0>
  4057c4:	911b3042 	add	x2, x2, #0x6cc
  4057c8:	aa1303e0 	mov	x0, x19
  4057cc:	97fff1d5 	bl	401f20 <__cxa_throw@plt>
  4057d0:	aa0003f4 	mov	x20, x0
  4057d4:	aa1303e0 	mov	x0, x19
  4057d8:	97fff16a 	bl	401d80 <__cxa_free_exception@plt>
  4057dc:	aa1403e0 	mov	x0, x20
  4057e0:	97fff1dc 	bl	401f50 <_Unwind_Resume@plt>

00000000004057e4 <_ZN2cl4sycl14nd_range_errorC2EPKci>:
  4057e4:	d10183ff 	sub	sp, sp, #0x60
  4057e8:	a9027bfd 	stp	x29, x30, [sp, #32]
  4057ec:	f9001bf7 	str	x23, [sp, #48]
  4057f0:	a90457f6 	stp	x22, x21, [sp, #64]
  4057f4:	a9054ff4 	stp	x20, x19, [sp, #80]
  4057f8:	910083fd 	add	x29, sp, #0x20
  4057fc:	910003e8 	mov	x8, sp
  405800:	91004117 	add	x23, x8, #0x10
  405804:	f90003f7 	str	x23, [sp]
  405808:	b40005e1 	cbz	x1, 4058c4 <_ZN2cl4sycl14nd_range_errorC2EPKci+0xe0>
  40580c:	aa0003f4 	mov	x20, x0
  405810:	aa0103e0 	mov	x0, x1
  405814:	2a0203f3 	mov	w19, w2
  405818:	aa0103f5 	mov	x21, x1
  40581c:	97fff119 	bl	401c80 <strlen@plt>
  405820:	aa0003f6 	mov	x22, x0
  405824:	f100401f 	cmp	x0, #0x10
  405828:	f9000fa0 	str	x0, [x29, #24]
  40582c:	54000143 	b.cc	405854 <_ZN2cl4sycl14nd_range_errorC2EPKci+0x70>  // b.lo, b.ul, b.last
  405830:	910003e0 	mov	x0, sp
  405834:	910063a1 	add	x1, x29, #0x18
  405838:	aa1f03e2 	mov	x2, xzr
  40583c:	97fff1c9 	bl	401f60 <_ZNSt7__cxx1112basic_stringIcSt11char_traitsIcESaIcEE9_M_createERmm@plt>
  405840:	f9400fa8 	ldr	x8, [x29, #24]
  405844:	f90003e0 	str	x0, [sp]
  405848:	f9000be8 	str	x8, [sp, #16]
  40584c:	b5000096 	cbnz	x22, 40585c <_ZN2cl4sycl14nd_range_errorC2EPKci+0x78>
  405850:	1400000b 	b	40587c <_ZN2cl4sycl14nd_range_errorC2EPKci+0x98>
  405854:	aa1703e0 	mov	x0, x23
  405858:	b4000136 	cbz	x22, 40587c <_ZN2cl4sycl14nd_range_errorC2EPKci+0x98>
  40585c:	f10006df 	cmp	x22, #0x1
  405860:	54000081 	b.ne	405870 <_ZN2cl4sycl14nd_range_errorC2EPKci+0x8c>  // b.any
  405864:	394002a8 	ldrb	w8, [x21]
  405868:	39000008 	strb	w8, [x0]
  40586c:	14000004 	b	40587c <_ZN2cl4sycl14nd_range_errorC2EPKci+0x98>
  405870:	aa1503e1 	mov	x1, x21
  405874:	aa1603e2 	mov	x2, x22
  405878:	97fff0ea 	bl	401c20 <memcpy@plt>
  40587c:	f9400fa8 	ldr	x8, [x29, #24]
  405880:	f94003e9 	ldr	x9, [sp]
  405884:	f90007e8 	str	x8, [sp, #8]
  405888:	3828693f 	strb	wzr, [x9, x8]
  40588c:	910003e1 	mov	x1, sp
  405890:	aa1403e0 	mov	x0, x20
  405894:	2a1303e2 	mov	w2, w19
  405898:	94000016 	bl	4058f0 <_ZN2cl4sycl14nd_range_errorC2ERKNSt7__cxx1112basic_stringIcSt11char_traitsIcESaIcEEEi>
  40589c:	f94003e0 	ldr	x0, [sp]
  4058a0:	eb17001f 	cmp	x0, x23
  4058a4:	54000040 	b.eq	4058ac <_ZN2cl4sycl14nd_range_errorC2EPKci+0xc8>  // b.none
  4058a8:	97fff142 	bl	401db0 <_ZdlPv@plt>
  4058ac:	a9454ff4 	ldp	x20, x19, [sp, #80]
  4058b0:	a94457f6 	ldp	x22, x21, [sp, #64]
  4058b4:	a9427bfd 	ldp	x29, x30, [sp, #32]
  4058b8:	f9401bf7 	ldr	x23, [sp, #48]
  4058bc:	910183ff 	add	sp, sp, #0x60
  4058c0:	d65f03c0 	ret
  4058c4:	b0000000 	adrp	x0, 406000 <_IO_stdin_used+0xa0>
  4058c8:	910b5800 	add	x0, x0, #0x2d6
  4058cc:	97fff129 	bl	401d70 <_ZSt19__throw_logic_errorPKc@plt>
  4058d0:	f94003e8 	ldr	x8, [sp]
  4058d4:	aa0003f3 	mov	x19, x0
  4058d8:	eb17011f 	cmp	x8, x23
  4058dc:	54000060 	b.eq	4058e8 <_ZN2cl4sycl14nd_range_errorC2EPKci+0x104>  // b.none
  4058e0:	aa0803e0 	mov	x0, x8
  4058e4:	97fff133 	bl	401db0 <_ZdlPv@plt>
  4058e8:	aa1303e0 	mov	x0, x19
  4058ec:	97fff199 	bl	401f50 <_Unwind_Resume@plt>

00000000004058f0 <_ZN2cl4sycl14nd_range_errorC2ERKNSt7__cxx1112basic_stringIcSt11char_traitsIcESaIcEEEi>:
  4058f0:	d10103ff 	sub	sp, sp, #0x40
  4058f4:	a9017bfd 	stp	x29, x30, [sp, #16]
  4058f8:	a90257f6 	stp	x22, x21, [sp, #32]
  4058fc:	a9034ff4 	stp	x20, x19, [sp, #48]
  405900:	910043fd 	add	x29, sp, #0x10
  405904:	aa0003f3 	mov	x19, x0
  405908:	52800080 	mov	w0, #0x4                   	// #4
  40590c:	2a0203f4 	mov	w20, w2
  405910:	aa0103f5 	mov	x21, x1
  405914:	97fff0e7 	bl	401cb0 <_ZN2cl4sycl15make_error_codeENS0_4errcE@plt>
  405918:	aa0003e2 	mov	x2, x0
  40591c:	aa0103e3 	mov	x3, x1
  405920:	a9007fff 	stp	xzr, xzr, [sp]
  405924:	910003e5 	mov	x5, sp
  405928:	aa1303e0 	mov	x0, x19
  40592c:	aa0203e1 	mov	x1, x2
  405930:	aa0303e2 	mov	x2, x3
  405934:	aa1503e3 	mov	x3, x21
  405938:	2a1403e4 	mov	w4, w20
  40593c:	97fffb9e 	bl	4047b4 <_ZN2cl4sycl9exceptionC2ESt10error_codeRKNSt7__cxx1112basic_stringIcSt11char_traitsIcESaIcEEEiSt10shared_ptrINS0_7contextEE>
  405940:	f94007f4 	ldr	x20, [sp, #8]
  405944:	b4000434 	cbz	x20, 4059c8 <_ZN2cl4sycl14nd_range_errorC2ERKNSt7__cxx1112basic_stringIcSt11char_traitsIcESaIcEEEi+0xd8>
  405948:	d00000b5 	adrp	x21, 41b000 <GCC_except_table33+0xff8c>
  40594c:	91002288 	add	x8, x20, #0x8
  405950:	f947eab5 	ldr	x21, [x21, #4048]
  405954:	b4000115 	cbz	x21, 405974 <_ZN2cl4sycl14nd_range_errorC2ERKNSt7__cxx1112basic_stringIcSt11char_traitsIcESaIcEEEi+0x84>
  405958:	885ffd09 	ldaxr	w9, [x8]
  40595c:	5100052a 	sub	w10, w9, #0x1
  405960:	880bfd0a 	stlxr	w11, w10, [x8]
  405964:	35ffffab 	cbnz	w11, 405958 <_ZN2cl4sycl14nd_range_errorC2ERKNSt7__cxx1112basic_stringIcSt11char_traitsIcESaIcEEEi+0x68>
  405968:	7100053f 	cmp	w9, #0x1
  40596c:	540000e0 	b.eq	405988 <_ZN2cl4sycl14nd_range_errorC2ERKNSt7__cxx1112basic_stringIcSt11char_traitsIcESaIcEEEi+0x98>  // b.none
  405970:	14000016 	b	4059c8 <_ZN2cl4sycl14nd_range_errorC2ERKNSt7__cxx1112basic_stringIcSt11char_traitsIcESaIcEEEi+0xd8>
  405974:	b9400109 	ldr	w9, [x8]
  405978:	5100052a 	sub	w10, w9, #0x1
  40597c:	b900010a 	str	w10, [x8]
  405980:	7100053f 	cmp	w9, #0x1
  405984:	54000221 	b.ne	4059c8 <_ZN2cl4sycl14nd_range_errorC2ERKNSt7__cxx1112basic_stringIcSt11char_traitsIcESaIcEEEi+0xd8>  // b.any
  405988:	aa1403f6 	mov	x22, x20
  40598c:	aa1403e0 	mov	x0, x20
  405990:	f840c6c8 	ldr	x8, [x22], #12
  405994:	f9400908 	ldr	x8, [x8, #16]
  405998:	d63f0100 	blr	x8
  40599c:	b4000275 	cbz	x21, 4059e8 <_ZN2cl4sycl14nd_range_errorC2ERKNSt7__cxx1112basic_stringIcSt11char_traitsIcESaIcEEEi+0xf8>
  4059a0:	885ffec8 	ldaxr	w8, [x22]
  4059a4:	51000509 	sub	w9, w8, #0x1
  4059a8:	880afec9 	stlxr	w10, w9, [x22]
  4059ac:	35ffffaa 	cbnz	w10, 4059a0 <_ZN2cl4sycl14nd_range_errorC2ERKNSt7__cxx1112basic_stringIcSt11char_traitsIcESaIcEEEi+0xb0>
  4059b0:	7100051f 	cmp	w8, #0x1
  4059b4:	540000a1 	b.ne	4059c8 <_ZN2cl4sycl14nd_range_errorC2ERKNSt7__cxx1112basic_stringIcSt11char_traitsIcESaIcEEEi+0xd8>  // b.any
  4059b8:	f9400288 	ldr	x8, [x20]
  4059bc:	aa1403e0 	mov	x0, x20
  4059c0:	f9400d08 	ldr	x8, [x8, #24]
  4059c4:	d63f0100 	blr	x8
  4059c8:	b0000008 	adrp	x8, 406000 <_IO_stdin_used+0xa0>
  4059cc:	911d4108 	add	x8, x8, #0x750
  4059d0:	f9000268 	str	x8, [x19]
  4059d4:	a9434ff4 	ldp	x20, x19, [sp, #48]
  4059d8:	a94257f6 	ldp	x22, x21, [sp, #32]
  4059dc:	a9417bfd 	ldp	x29, x30, [sp, #16]
  4059e0:	910103ff 	add	sp, sp, #0x40
  4059e4:	d65f03c0 	ret
  4059e8:	b94002c8 	ldr	w8, [x22]
  4059ec:	51000509 	sub	w9, w8, #0x1
  4059f0:	b90002c9 	str	w9, [x22]
  4059f4:	7100051f 	cmp	w8, #0x1
  4059f8:	54fffe00 	b.eq	4059b8 <_ZN2cl4sycl14nd_range_errorC2ERKNSt7__cxx1112basic_stringIcSt11char_traitsIcESaIcEEEi+0xc8>  // b.none
  4059fc:	17fffff3 	b	4059c8 <_ZN2cl4sycl14nd_range_errorC2ERKNSt7__cxx1112basic_stringIcSt11char_traitsIcESaIcEEEi+0xd8>
  405a00:	f94007f4 	ldr	x20, [sp, #8]
  405a04:	aa0003f3 	mov	x19, x0
  405a08:	b40004b4 	cbz	x20, 405a9c <_ZN2cl4sycl14nd_range_errorC2ERKNSt7__cxx1112basic_stringIcSt11char_traitsIcESaIcEEEi+0x1ac>
  405a0c:	d00000b5 	adrp	x21, 41b000 <GCC_except_table33+0xff8c>
  405a10:	91002288 	add	x8, x20, #0x8
  405a14:	f947eab5 	ldr	x21, [x21, #4048]
  405a18:	b40000d5 	cbz	x21, 405a30 <_ZN2cl4sycl14nd_range_errorC2ERKNSt7__cxx1112basic_stringIcSt11char_traitsIcESaIcEEEi+0x140>
  405a1c:	885ffd09 	ldaxr	w9, [x8]
  405a20:	5100052a 	sub	w10, w9, #0x1
  405a24:	880bfd0a 	stlxr	w11, w10, [x8]
  405a28:	35ffffab 	cbnz	w11, 405a1c <_ZN2cl4sycl14nd_range_errorC2ERKNSt7__cxx1112basic_stringIcSt11char_traitsIcESaIcEEEi+0x12c>
  405a2c:	14000004 	b	405a3c <_ZN2cl4sycl14nd_range_errorC2ERKNSt7__cxx1112basic_stringIcSt11char_traitsIcESaIcEEEi+0x14c>
  405a30:	b9400109 	ldr	w9, [x8]
  405a34:	5100052a 	sub	w10, w9, #0x1
  405a38:	b900010a 	str	w10, [x8]
  405a3c:	7100053f 	cmp	w9, #0x1
  405a40:	540002e1 	b.ne	405a9c <_ZN2cl4sycl14nd_range_errorC2ERKNSt7__cxx1112basic_stringIcSt11char_traitsIcESaIcEEEi+0x1ac>  // b.any
  405a44:	aa1403e8 	mov	x8, x20
  405a48:	aa1403e0 	mov	x0, x20
  405a4c:	f840c509 	ldr	x9, [x8], #12
  405a50:	aa0803f6 	mov	x22, x8
  405a54:	f9400928 	ldr	x8, [x9, #16]
  405a58:	d63f0100 	blr	x8
  405a5c:	b40000f5 	cbz	x21, 405a78 <_ZN2cl4sycl14nd_range_errorC2ERKNSt7__cxx1112basic_stringIcSt11char_traitsIcESaIcEEEi+0x188>
  405a60:	aa1603e9 	mov	x9, x22
  405a64:	885ffd28 	ldaxr	w8, [x9]
  405a68:	5100050a 	sub	w10, w8, #0x1
  405a6c:	880bfd2a 	stlxr	w11, w10, [x9]
  405a70:	35ffffab 	cbnz	w11, 405a64 <_ZN2cl4sycl14nd_range_errorC2ERKNSt7__cxx1112basic_stringIcSt11char_traitsIcESaIcEEEi+0x174>
  405a74:	14000004 	b	405a84 <_ZN2cl4sycl14nd_range_errorC2ERKNSt7__cxx1112basic_stringIcSt11char_traitsIcESaIcEEEi+0x194>
  405a78:	b94002c8 	ldr	w8, [x22]
  405a7c:	51000509 	sub	w9, w8, #0x1
  405a80:	b90002c9 	str	w9, [x22]
  405a84:	7100051f 	cmp	w8, #0x1
  405a88:	540000a1 	b.ne	405a9c <_ZN2cl4sycl14nd_range_errorC2ERKNSt7__cxx1112basic_stringIcSt11char_traitsIcESaIcEEEi+0x1ac>  // b.any
  405a8c:	f9400288 	ldr	x8, [x20]
  405a90:	aa1403e0 	mov	x0, x20
  405a94:	f9400d08 	ldr	x8, [x8, #24]
  405a98:	d63f0100 	blr	x8
  405a9c:	aa1303e0 	mov	x0, x19
  405aa0:	97fff12c 	bl	401f50 <_Unwind_Resume@plt>

0000000000405aa4 <_ZN2cl4sycl14nd_range_errorD0Ev>:
  405aa4:	a9bd7bfd 	stp	x29, x30, [sp, #-48]!
  405aa8:	a90157f6 	stp	x22, x21, [sp, #16]
  405aac:	a9024ff4 	stp	x20, x19, [sp, #32]
  405ab0:	910003fd 	mov	x29, sp
  405ab4:	aa0003f3 	mov	x19, x0
  405ab8:	f9401c14 	ldr	x20, [x0, #56]
  405abc:	d00000a8 	adrp	x8, 41b000 <GCC_except_table33+0xff8c>
  405ac0:	91354108 	add	x8, x8, #0xd50
  405ac4:	f9000008 	str	x8, [x0]
  405ac8:	b4000434 	cbz	x20, 405b4c <_ZN2cl4sycl14nd_range_errorD0Ev+0xa8>
  405acc:	d00000b5 	adrp	x21, 41b000 <GCC_except_table33+0xff8c>
  405ad0:	91002288 	add	x8, x20, #0x8
  405ad4:	f947eab5 	ldr	x21, [x21, #4048]
  405ad8:	b4000115 	cbz	x21, 405af8 <_ZN2cl4sycl14nd_range_errorD0Ev+0x54>
  405adc:	885ffd09 	ldaxr	w9, [x8]
  405ae0:	5100052a 	sub	w10, w9, #0x1
  405ae4:	880bfd0a 	stlxr	w11, w10, [x8]
  405ae8:	35ffffab 	cbnz	w11, 405adc <_ZN2cl4sycl14nd_range_errorD0Ev+0x38>
  405aec:	7100053f 	cmp	w9, #0x1
  405af0:	540000e0 	b.eq	405b0c <_ZN2cl4sycl14nd_range_errorD0Ev+0x68>  // b.none
  405af4:	14000016 	b	405b4c <_ZN2cl4sycl14nd_range_errorD0Ev+0xa8>
  405af8:	b9400109 	ldr	w9, [x8]
  405afc:	5100052a 	sub	w10, w9, #0x1
  405b00:	b900010a 	str	w10, [x8]
  405b04:	7100053f 	cmp	w9, #0x1
  405b08:	54000221 	b.ne	405b4c <_ZN2cl4sycl14nd_range_errorD0Ev+0xa8>  // b.any
  405b0c:	aa1403f6 	mov	x22, x20
  405b10:	aa1403e0 	mov	x0, x20
  405b14:	f840c6c8 	ldr	x8, [x22], #12
  405b18:	f9400908 	ldr	x8, [x8, #16]
  405b1c:	d63f0100 	blr	x8
  405b20:	b40002f5 	cbz	x21, 405b7c <_ZN2cl4sycl14nd_range_errorD0Ev+0xd8>
  405b24:	885ffec8 	ldaxr	w8, [x22]
  405b28:	51000509 	sub	w9, w8, #0x1
  405b2c:	880afec9 	stlxr	w10, w9, [x22]
  405b30:	35ffffaa 	cbnz	w10, 405b24 <_ZN2cl4sycl14nd_range_errorD0Ev+0x80>
  405b34:	7100051f 	cmp	w8, #0x1
  405b38:	540000a1 	b.ne	405b4c <_ZN2cl4sycl14nd_range_errorD0Ev+0xa8>  // b.any
  405b3c:	f9400288 	ldr	x8, [x20]
  405b40:	aa1403e0 	mov	x0, x20
  405b44:	f9400d08 	ldr	x8, [x8, #24]
  405b48:	d63f0100 	blr	x8
  405b4c:	f9400660 	ldr	x0, [x19, #8]
  405b50:	91006268 	add	x8, x19, #0x18
  405b54:	eb08001f 	cmp	x0, x8
  405b58:	54000040 	b.eq	405b60 <_ZN2cl4sycl14nd_range_errorD0Ev+0xbc>  // b.none
  405b5c:	97fff095 	bl	401db0 <_ZdlPv@plt>
  405b60:	aa1303e0 	mov	x0, x19
  405b64:	97fff103 	bl	401f70 <_ZNSt9exceptionD2Ev@plt>
  405b68:	aa1303e0 	mov	x0, x19
  405b6c:	a9424ff4 	ldp	x20, x19, [sp, #32]
  405b70:	a94157f6 	ldp	x22, x21, [sp, #16]
  405b74:	a8c37bfd 	ldp	x29, x30, [sp], #48
  405b78:	17fff08e 	b	401db0 <_ZdlPv@plt>
  405b7c:	b94002c8 	ldr	w8, [x22]
  405b80:	51000509 	sub	w9, w8, #0x1
  405b84:	b90002c9 	str	w9, [x22]
  405b88:	7100051f 	cmp	w8, #0x1
  405b8c:	54fffd80 	b.eq	405b3c <_ZN2cl4sycl14nd_range_errorD0Ev+0x98>  // b.none
  405b90:	17ffffef 	b	405b4c <_ZN2cl4sycl14nd_range_errorD0Ev+0xa8>

0000000000405b94 <_ZN2cl4sycl6detail17NDLoopIterateImplILi2ELi1ENS0_5rangeEZNS1_10HostKernelISt8functionIFvRKNS0_7nd_itemILi2EEEEES7_Li2EE9runOnHostIS7_EENSt9enable_ifIXsr3std7is_sameIT_S7_EE5valueEvE4typeERKNS1_8NDRDescTEEUlRKNS0_2idILi2EEEE_S3_EC2ERKNS3_ILi2EEEST_ST_SP_RSR_>:
  405b94:	d107c3ff 	sub	sp, sp, #0x1f0
  405b98:	a9197bfd 	stp	x29, x30, [sp, #400]
  405b9c:	a91a6ffc 	stp	x28, x27, [sp, #416]
  405ba0:	a91b67fa 	stp	x26, x25, [sp, #432]
  405ba4:	a91c5ff8 	stp	x24, x23, [sp, #448]
  405ba8:	a91d57f6 	stp	x22, x21, [sp, #464]
  405bac:	a91e4ff4 	stp	x20, x19, [sp, #480]
  405bb0:	910643fd 	add	x29, sp, #0x190
  405bb4:	f9400028 	ldr	x8, [x1]
  405bb8:	f90000a8 	str	x8, [x5]
  405bbc:	f9400069 	ldr	x9, [x3]
  405bc0:	eb09011f 	cmp	x8, x9
  405bc4:	54001202 	b.cs	405e04 <_ZN2cl4sycl6detail17NDLoopIterateImplILi2ELi1ENS0_5rangeEZNS1_10HostKernelISt8functionIFvRKNS0_7nd_itemILi2EEEEES7_Li2EE9runOnHostIS7_EENSt9enable_ifIXsr3std7is_sameIT_S7_EE5valueEvE4typeERKNS1_8NDRDescTEEUlRKNS0_2idILi2EEEE_S3_EC2ERKNS3_ILi2EEEST_ST_SP_RSR_+0x270>  // b.hs, b.nlast
  405bc8:	910203e9 	add	x9, sp, #0x80
  405bcc:	910283ea 	add	x10, sp, #0xa0
  405bd0:	9100412d 	add	x13, x9, #0x10
  405bd4:	9100814b 	add	x11, x10, #0x20
  405bd8:	9100c149 	add	x9, x10, #0x30
  405bdc:	a90297e3 	stp	x3, x5, [sp, #40]
  405be0:	a90093e1 	stp	x1, x4, [sp, #8]
  405be4:	a9018bed 	stp	x13, x2, [sp, #24]
  405be8:	a9052fe9 	stp	x9, x11, [sp, #80]
  405bec:	91014149 	add	x9, x10, #0x50
  405bf0:	f90027e9 	str	x9, [sp, #72]
  405bf4:	14000009 	b	405c18 <_ZN2cl4sycl6detail17NDLoopIterateImplILi2ELi1ENS0_5rangeEZNS1_10HostKernelISt8functionIFvRKNS0_7nd_itemILi2EEEEES7_Li2EE9runOnHostIS7_EENSt9enable_ifIXsr3std7is_sameIT_S7_EE5valueEvE4typeERKNS1_8NDRDescTEEUlRKNS0_2idILi2EEEE_S3_EC2ERKNS3_ILi2EEEST_ST_SP_RSR_+0x84>
  405bf8:	a94093e1 	ldp	x1, x4, [sp, #8]
  405bfc:	f94000a8 	ldr	x8, [x5]
  405c00:	f9400049 	ldr	x9, [x2]
  405c04:	8b090108 	add	x8, x8, x9
  405c08:	f90000a8 	str	x8, [x5]
  405c0c:	f9400069 	ldr	x9, [x3]
  405c10:	eb09011f 	cmp	x8, x9
  405c14:	54000f82 	b.cs	405e04 <_ZN2cl4sycl6detail17NDLoopIterateImplILi2ELi1ENS0_5rangeEZNS1_10HostKernelISt8functionIFvRKNS0_7nd_itemILi2EEEEES7_Li2EE9runOnHostIS7_EENSt9enable_ifIXsr3std7is_sameIT_S7_EE5valueEvE4typeERKNS1_8NDRDescTEEUlRKNS0_2idILi2EEEE_S3_EC2ERKNS3_ILi2EEEST_ST_SP_RSR_+0x270>  // b.hs, b.nlast
  405c18:	a9404489 	ldp	x9, x17, [x4]
  405c1c:	f9400436 	ldr	x22, [x1, #8]
  405c20:	f940108a 	ldr	x10, [x4, #32]
  405c24:	f9003be9 	str	x9, [sp, #112]
  405c28:	a941248f 	ldp	x15, x9, [x4, #16]
  405c2c:	f90004b6 	str	x22, [x5, #8]
  405c30:	f90033e9 	str	x9, [sp, #96]
  405c34:	f9400469 	ldr	x9, [x3, #8]
  405c38:	eb0902df 	cmp	x22, x9
  405c3c:	54fffe22 	b.cs	405c00 <_ZN2cl4sycl6detail17NDLoopIterateImplILi2ELi1ENS0_5rangeEZNS1_10HostKernelISt8functionIFvRKNS0_7nd_itemILi2EEEEES7_Li2EE9runOnHostIS7_EENSt9enable_ifIXsr3std7is_sameIT_S7_EE5valueEvE4typeERKNS1_8NDRDescTEEUlRKNS0_2idILi2EEEE_S3_EC2ERKNS3_ILi2EEEST_ST_SP_RSR_+0x6c>  // b.hs, b.nlast
  405c40:	91002148 	add	x8, x10, #0x8
  405c44:	f9003fea 	str	x10, [sp, #120]
  405c48:	a903a3ef 	stp	x15, x8, [sp, #56]
  405c4c:	1400000b 	b	405c78 <_ZN2cl4sycl6detail17NDLoopIterateImplILi2ELi1ENS0_5rangeEZNS1_10HostKernelISt8functionIFvRKNS0_7nd_itemILi2EEEEES7_Li2EE9runOnHostIS7_EENSt9enable_ifIXsr3std7is_sameIT_S7_EE5valueEvE4typeERKNS1_8NDRDescTEEUlRKNS0_2idILi2EEEE_S3_EC2ERKNS3_ILi2EEEST_ST_SP_RSR_+0xe4>
  405c50:	a94297e3 	ldp	x3, x5, [sp, #40]
  405c54:	a9418bed 	ldp	x13, x2, [sp, #24]
  405c58:	f9401fef 	ldr	x15, [sp, #56]
  405c5c:	f94004b6 	ldr	x22, [x5, #8]
  405c60:	f9400448 	ldr	x8, [x2, #8]
  405c64:	8b0802d6 	add	x22, x22, x8
  405c68:	f90004b6 	str	x22, [x5, #8]
  405c6c:	f9400468 	ldr	x8, [x3, #8]
  405c70:	eb0802df 	cmp	x22, x8
  405c74:	54fffc22 	b.cs	405bf8 <_ZN2cl4sycl6detail17NDLoopIterateImplILi2ELi1ENS0_5rangeEZNS1_10HostKernelISt8functionIFvRKNS0_7nd_itemILi2EEEEES7_Li2EE9runOnHostIS7_EENSt9enable_ifIXsr3std7is_sameIT_S7_EE5valueEvE4typeERKNS1_8NDRDescTEEUlRKNS0_2idILi2EEEE_S3_EC2ERKNS3_ILi2EEEST_ST_SP_RSR_+0x64>  // b.hs, b.nlast
  405c78:	f9403bee 	ldr	x14, [sp, #112]
  405c7c:	a9405628 	ldp	x8, x21, [x17]
  405c80:	a94031cb 	ldp	x11, x12, [x14]
  405c84:	a94051f9 	ldp	x25, x20, [x15]
  405c88:	9ac8096a 	udiv	x10, x11, x8
  405c8c:	f94000b0 	ldr	x16, [x5]
  405c90:	3dc001c0 	ldr	q0, [x14]
  405c94:	3dc00221 	ldr	q1, [x17]
  405c98:	f90037f0 	str	x16, [sp, #104]
  405c9c:	3d8023e0 	str	q0, [sp, #128]
  405ca0:	3d8001a1 	str	q1, [x13]
  405ca4:	9b08ad4b 	msub	x11, x10, x8, x11
  405ca8:	9ad50989 	udiv	x9, x12, x21
  405cac:	9b15b12c 	msub	x12, x9, x21, x12
  405cb0:	9b0b7d8b 	mul	x11, x12, x11
  405cb4:	b5000cab 	cbnz	x11, 405e48 <_ZN2cl4sycl6detail17NDLoopIterateImplILi2ELi1ENS0_5rangeEZNS1_10HostKernelISt8functionIFvRKNS0_7nd_itemILi2EEEEES7_Li2EE9runOnHostIS7_EENSt9enable_ifIXsr3std7is_sameIT_S7_EE5valueEvE4typeERKNS1_8NDRDescTEEUlRKNS0_2idILi2EEEE_S3_EC2ERKNS3_ILi2EEEST_ST_SP_RSR_+0x2b4>
  405cb8:	cb19014a 	sub	x10, x10, x25
  405cbc:	cb140129 	sub	x9, x9, x20
  405cc0:	9b0a7d29 	mul	x9, x9, x10
  405cc4:	b5000b29 	cbnz	x9, 405e28 <_ZN2cl4sycl6detail17NDLoopIterateImplILi2ELi1ENS0_5rangeEZNS1_10HostKernelISt8functionIFvRKNS0_7nd_itemILi2EEEEES7_Li2EE9runOnHostIS7_EENSt9enable_ifIXsr3std7is_sameIT_S7_EE5valueEvE4typeERKNS1_8NDRDescTEEUlRKNS0_2idILi2EEEE_S3_EC2ERKNS3_ILi2EEEST_ST_SP_RSR_+0x294>
  405cc8:	b4fffcc8 	cbz	x8, 405c60 <_ZN2cl4sycl6detail17NDLoopIterateImplILi2ELi1ENS0_5rangeEZNS1_10HostKernelISt8functionIFvRKNS0_7nd_itemILi2EEEEES7_Li2EE9runOnHostIS7_EENSt9enable_ifIXsr3std7is_sameIT_S7_EE5valueEvE4typeERKNS1_8NDRDescTEEUlRKNS0_2idILi2EEEE_S3_EC2ERKNS3_ILi2EEEST_ST_SP_RSR_+0xcc>
  405ccc:	b4fffcb5 	cbz	x21, 405c60 <_ZN2cl4sycl6detail17NDLoopIterateImplILi2ELi1ENS0_5rangeEZNS1_10HostKernelISt8functionIFvRKNS0_7nd_itemILi2EEEEES7_Li2EE9runOnHostIS7_EENSt9enable_ifIXsr3std7is_sameIT_S7_EE5valueEvE4typeERKNS1_8NDRDescTEEUlRKNS0_2idILi2EEEE_S3_EC2ERKNS3_ILi2EEEST_ST_SP_RSR_+0xcc>
  405cd0:	aa1f03fb 	mov	x27, xzr
  405cd4:	52800029 	mov	w9, #0x1                   	// #1
  405cd8:	14000006 	b	405cf0 <_ZN2cl4sycl6detail17NDLoopIterateImplILi2ELi1ENS0_5rangeEZNS1_10HostKernelISt8functionIFvRKNS0_7nd_itemILi2EEEEES7_Li2EE9runOnHostIS7_EENSt9enable_ifIXsr3std7is_sameIT_S7_EE5valueEvE4typeERKNS1_8NDRDescTEEUlRKNS0_2idILi2EEEE_S3_EC2ERKNS3_ILi2EEEST_ST_SP_RSR_+0x15c>
  405cdc:	f9400228 	ldr	x8, [x17]
  405ce0:	aa1503e9 	mov	x9, x21
  405ce4:	9100077b 	add	x27, x27, #0x1
  405ce8:	eb08037f 	cmp	x27, x8
  405cec:	54fffb22 	b.cs	405c50 <_ZN2cl4sycl6detail17NDLoopIterateImplILi2ELi1ENS0_5rangeEZNS1_10HostKernelISt8functionIFvRKNS0_7nd_itemILi2EEEEES7_Li2EE9runOnHostIS7_EENSt9enable_ifIXsr3std7is_sameIT_S7_EE5valueEvE4typeERKNS1_8NDRDescTEEUlRKNS0_2idILi2EEEE_S3_EC2ERKNS3_ILi2EEEST_ST_SP_RSR_+0xbc>  // b.hs, b.nlast
  405cf0:	b4ffffa9 	cbz	x9, 405ce4 <_ZN2cl4sycl6detail17NDLoopIterateImplILi2ELi1ENS0_5rangeEZNS1_10HostKernelISt8functionIFvRKNS0_7nd_itemILi2EEEEES7_Li2EE9runOnHostIS7_EENSt9enable_ifIXsr3std7is_sameIT_S7_EE5valueEvE4typeERKNS1_8NDRDescTEEUlRKNS0_2idILi2EEEE_S3_EC2ERKNS3_ILi2EEEST_ST_SP_RSR_+0x150>
  405cf4:	aa1f03f8 	mov	x24, xzr
  405cf8:	14000006 	b	405d10 <_ZN2cl4sycl6detail17NDLoopIterateImplILi2ELi1ENS0_5rangeEZNS1_10HostKernelISt8functionIFvRKNS0_7nd_itemILi2EEEEES7_Li2EE9runOnHostIS7_EENSt9enable_ifIXsr3std7is_sameIT_S7_EE5valueEvE4typeERKNS1_8NDRDescTEEUlRKNS0_2idILi2EEEE_S3_EC2ERKNS3_ILi2EEEST_ST_SP_RSR_+0x17c>
  405cfc:	f94006f5 	ldr	x21, [x23, #8]
  405d00:	aa1703f1 	mov	x17, x23
  405d04:	91000718 	add	x24, x24, #0x1
  405d08:	eb15031f 	cmp	x24, x21
  405d0c:	54fffe82 	b.cs	405cdc <_ZN2cl4sycl6detail17NDLoopIterateImplILi2ELi1ENS0_5rangeEZNS1_10HostKernelISt8functionIFvRKNS0_7nd_itemILi2EEEEES7_Li2EE9runOnHostIS7_EENSt9enable_ifIXsr3std7is_sameIT_S7_EE5valueEvE4typeERKNS1_8NDRDescTEEUlRKNS0_2idILi2EEEE_S3_EC2ERKNS3_ILi2EEEST_ST_SP_RSR_+0x148>  // b.hs, b.nlast
  405d10:	f9403be8 	ldr	x8, [sp, #112]
  405d14:	aa1903f3 	mov	x19, x25
  405d18:	f94033e9 	ldr	x9, [sp, #96]
  405d1c:	aa1603f9 	mov	x25, x22
  405d20:	f940023c 	ldr	x28, [x17]
  405d24:	aa1103f7 	mov	x23, x17
  405d28:	3dc00101 	ldr	q1, [x8]
  405d2c:	f9403fe8 	ldr	x8, [sp, #120]
  405d30:	a940593a 	ldp	x26, x22, [x9]
  405d34:	3dc00220 	ldr	q0, [x17]
  405d38:	3dc00122 	ldr	q2, [x9]
  405d3c:	f81b03bf 	stur	xzr, [x29, #-80]
  405d40:	f9400d08 	ldr	x8, [x8, #24]
  405d44:	ad3e83a1 	stp	q1, q0, [x29, #-48]
  405d48:	3c9c03a2 	stur	q2, [x29, #-64]
  405d4c:	b40001a8 	cbz	x8, 405d80 <_ZN2cl4sycl6detail17NDLoopIterateImplILi2ELi1ENS0_5rangeEZNS1_10HostKernelISt8functionIFvRKNS0_7nd_itemILi2EEEEES7_Li2EE9runOnHostIS7_EENSt9enable_ifIXsr3std7is_sameIT_S7_EE5valueEvE4typeERKNS1_8NDRDescTEEUlRKNS0_2idILi2EEEE_S3_EC2ERKNS3_ILi2EEEST_ST_SP_RSR_+0x1ec>
  405d50:	d10183a0 	sub	x0, x29, #0x60
  405d54:	f94023e1 	ldr	x1, [sp, #64]
  405d58:	52800042 	mov	w2, #0x2                   	// #2
  405d5c:	d63f0100 	blr	x8
  405d60:	f9403fe9 	ldr	x9, [sp, #120]
  405d64:	f9401128 	ldr	x8, [x9, #32]
  405d68:	f81b83a8 	stur	x8, [x29, #-72]
  405d6c:	f9400d2a 	ldr	x10, [x9, #24]
  405d70:	f100015f 	cmp	x10, #0x0
  405d74:	f81b03aa 	stur	x10, [x29, #-80]
  405d78:	1a9f17e9 	cset	w9, eq  // eq = none
  405d7c:	14000002 	b	405d84 <_ZN2cl4sycl6detail17NDLoopIterateImplILi2ELi1ENS0_5rangeEZNS1_10HostKernelISt8functionIFvRKNS0_7nd_itemILi2EEEEES7_Li2EE9runOnHostIS7_EENSt9enable_ifIXsr3std7is_sameIT_S7_EE5valueEvE4typeERKNS1_8NDRDescTEEUlRKNS0_2idILi2EEEE_S3_EC2ERKNS3_ILi2EEEST_ST_SP_RSR_+0x1f0>
  405d80:	52800029 	mov	w9, #0x1                   	// #1
  405d84:	ad7e03a1 	ldp	q1, q0, [x29, #-64]
  405d88:	9b195aab 	madd	x11, x21, x25, x22
  405d8c:	aa1903f6 	mov	x22, x25
  405d90:	a90e63fb 	stp	x27, x24, [sp, #224]
  405d94:	8b0b030b 	add	x11, x24, x11
  405d98:	a91153f3 	stp	x19, x20, [sp, #272]
  405d9c:	f94037ed 	ldr	x13, [sp, #104]
  405da0:	3d802be0 	str	q0, [sp, #160]
  405da4:	f9402fec 	ldr	x12, [sp, #88]
  405da8:	3cde03a2 	ldur	q2, [x29, #-32]
  405dac:	9b0d6f8a 	madd	x10, x28, x13, x27
  405db0:	a91267ed 	stp	x13, x25, [sp, #288]
  405db4:	3d800181 	str	q1, [x12]
  405db8:	f9402bec 	ldr	x12, [sp, #80]
  405dbc:	8b1a014a 	add	x10, x10, x26
  405dc0:	ad4407e0 	ldp	q0, q1, [sp, #128]
  405dc4:	3d800182 	str	q2, [x12]
  405dc8:	a90b2fea 	stp	x10, x11, [sp, #176]
  405dcc:	f94027ea 	ldr	x10, [sp, #72]
  405dd0:	ad000540 	stp	q0, q1, [x10]
  405dd4:	35000289 	cbnz	w9, 405e24 <_ZN2cl4sycl6detail17NDLoopIterateImplILi2ELi1ENS0_5rangeEZNS1_10HostKernelISt8functionIFvRKNS0_7nd_itemILi2EEEEES7_Li2EE9runOnHostIS7_EENSt9enable_ifIXsr3std7is_sameIT_S7_EE5valueEvE4typeERKNS1_8NDRDescTEEUlRKNS0_2idILi2EEEE_S3_EC2ERKNS3_ILi2EEEST_ST_SP_RSR_+0x290>
  405dd8:	d10183a0 	sub	x0, x29, #0x60
  405ddc:	910283e1 	add	x1, sp, #0xa0
  405de0:	aa1303f9 	mov	x25, x19
  405de4:	d63f0100 	blr	x8
  405de8:	f85b03a8 	ldur	x8, [x29, #-80]
  405dec:	b4fff888 	cbz	x8, 405cfc <_ZN2cl4sycl6detail17NDLoopIterateImplILi2ELi1ENS0_5rangeEZNS1_10HostKernelISt8functionIFvRKNS0_7nd_itemILi2EEEEES7_Li2EE9runOnHostIS7_EENSt9enable_ifIXsr3std7is_sameIT_S7_EE5valueEvE4typeERKNS1_8NDRDescTEEUlRKNS0_2idILi2EEEE_S3_EC2ERKNS3_ILi2EEEST_ST_SP_RSR_+0x168>
  405df0:	d10183a0 	sub	x0, x29, #0x60
  405df4:	d10183a1 	sub	x1, x29, #0x60
  405df8:	52800062 	mov	w2, #0x3                   	// #3
  405dfc:	d63f0100 	blr	x8
  405e00:	17ffffbf 	b	405cfc <_ZN2cl4sycl6detail17NDLoopIterateImplILi2ELi1ENS0_5rangeEZNS1_10HostKernelISt8functionIFvRKNS0_7nd_itemILi2EEEEES7_Li2EE9runOnHostIS7_EENSt9enable_ifIXsr3std7is_sameIT_S7_EE5valueEvE4typeERKNS1_8NDRDescTEEUlRKNS0_2idILi2EEEE_S3_EC2ERKNS3_ILi2EEEST_ST_SP_RSR_+0x168>
  405e04:	a95e4ff4 	ldp	x20, x19, [sp, #480]
  405e08:	a95d57f6 	ldp	x22, x21, [sp, #464]
  405e0c:	a95c5ff8 	ldp	x24, x23, [sp, #448]
  405e10:	a95b67fa 	ldp	x26, x25, [sp, #432]
  405e14:	a95a6ffc 	ldp	x28, x27, [sp, #416]
  405e18:	a9597bfd 	ldp	x29, x30, [sp, #400]
  405e1c:	9107c3ff 	add	sp, sp, #0x1f0
  405e20:	d65f03c0 	ret
  405e24:	97ffef9f 	bl	401ca0 <_ZSt25__throw_bad_function_callv@plt>
  405e28:	b0000000 	adrp	x0, 406000 <_IO_stdin_used+0xa0>
  405e2c:	9114a400 	add	x0, x0, #0x529
  405e30:	b0000001 	adrp	x1, 406000 <_IO_stdin_used+0xa0>
  405e34:	9110ec21 	add	x1, x1, #0x43b
  405e38:	b0000003 	adrp	x3, 406000 <_IO_stdin_used+0xa0>
  405e3c:	91126c63 	add	x3, x3, #0x49b
  405e40:	52804202 	mov	w2, #0x210                 	// #528
  405e44:	97ffefb3 	bl	401d10 <__assert_fail@plt>
  405e48:	b0000000 	adrp	x0, 406000 <_IO_stdin_used+0xa0>
  405e4c:	910fe800 	add	x0, x0, #0x3fa
  405e50:	b0000001 	adrp	x1, 406000 <_IO_stdin_used+0xa0>
  405e54:	9110ec21 	add	x1, x1, #0x43b
  405e58:	b0000003 	adrp	x3, 406000 <_IO_stdin_used+0xa0>
  405e5c:	91126c63 	add	x3, x3, #0x49b
  405e60:	528041c2 	mov	w2, #0x20e                 	// #526
  405e64:	97ffefab 	bl	401d10 <__assert_fail@plt>
  405e68:	97fff911 	bl	4042ac <__clang_call_terminate>
  405e6c:	f85b03a8 	ldur	x8, [x29, #-80]
  405e70:	aa0003f3 	mov	x19, x0
  405e74:	b4000248 	cbz	x8, 405ebc <_ZN2cl4sycl6detail17NDLoopIterateImplILi2ELi1ENS0_5rangeEZNS1_10HostKernelISt8functionIFvRKNS0_7nd_itemILi2EEEEES7_Li2EE9runOnHostIS7_EENSt9enable_ifIXsr3std7is_sameIT_S7_EE5valueEvE4typeERKNS1_8NDRDescTEEUlRKNS0_2idILi2EEEE_S3_EC2ERKNS3_ILi2EEEST_ST_SP_RSR_+0x328>
  405e78:	d10183a0 	sub	x0, x29, #0x60
  405e7c:	d10183a1 	sub	x1, x29, #0x60
  405e80:	52800062 	mov	w2, #0x3                   	// #3
  405e84:	d63f0100 	blr	x8
  405e88:	1400000d 	b	405ebc <_ZN2cl4sycl6detail17NDLoopIterateImplILi2ELi1ENS0_5rangeEZNS1_10HostKernelISt8functionIFvRKNS0_7nd_itemILi2EEEEES7_Li2EE9runOnHostIS7_EENSt9enable_ifIXsr3std7is_sameIT_S7_EE5valueEvE4typeERKNS1_8NDRDescTEEUlRKNS0_2idILi2EEEE_S3_EC2ERKNS3_ILi2EEEST_ST_SP_RSR_+0x328>
  405e8c:	97fff908 	bl	4042ac <__clang_call_terminate>
  405e90:	aa0003f3 	mov	x19, x0
  405e94:	f85b03a8 	ldur	x8, [x29, #-80]
  405e98:	b50000a8 	cbnz	x8, 405eac <_ZN2cl4sycl6detail17NDLoopIterateImplILi2ELi1ENS0_5rangeEZNS1_10HostKernelISt8functionIFvRKNS0_7nd_itemILi2EEEEES7_Li2EE9runOnHostIS7_EENSt9enable_ifIXsr3std7is_sameIT_S7_EE5valueEvE4typeERKNS1_8NDRDescTEEUlRKNS0_2idILi2EEEE_S3_EC2ERKNS3_ILi2EEEST_ST_SP_RSR_+0x318>
  405e9c:	14000008 	b	405ebc <_ZN2cl4sycl6detail17NDLoopIterateImplILi2ELi1ENS0_5rangeEZNS1_10HostKernelISt8functionIFvRKNS0_7nd_itemILi2EEEEES7_Li2EE9runOnHostIS7_EENSt9enable_ifIXsr3std7is_sameIT_S7_EE5valueEvE4typeERKNS1_8NDRDescTEEUlRKNS0_2idILi2EEEE_S3_EC2ERKNS3_ILi2EEEST_ST_SP_RSR_+0x328>
  405ea0:	aa0003f3 	mov	x19, x0
  405ea4:	f85b03a8 	ldur	x8, [x29, #-80]
  405ea8:	b40000a8 	cbz	x8, 405ebc <_ZN2cl4sycl6detail17NDLoopIterateImplILi2ELi1ENS0_5rangeEZNS1_10HostKernelISt8functionIFvRKNS0_7nd_itemILi2EEEEES7_Li2EE9runOnHostIS7_EENSt9enable_ifIXsr3std7is_sameIT_S7_EE5valueEvE4typeERKNS1_8NDRDescTEEUlRKNS0_2idILi2EEEE_S3_EC2ERKNS3_ILi2EEEST_ST_SP_RSR_+0x328>
  405eac:	d10183a0 	sub	x0, x29, #0x60
  405eb0:	d10183a1 	sub	x1, x29, #0x60
  405eb4:	52800062 	mov	w2, #0x3                   	// #3
  405eb8:	d63f0100 	blr	x8
  405ebc:	aa1303e0 	mov	x0, x19
  405ec0:	97fff024 	bl	401f50 <_Unwind_Resume@plt>
  405ec4:	97fff8fa 	bl	4042ac <__clang_call_terminate>

0000000000405ec8 <__libc_csu_init>:
  405ec8:	a9bc7bfd 	stp	x29, x30, [sp, #-64]!
  405ecc:	910003fd 	mov	x29, sp
  405ed0:	a90153f3 	stp	x19, x20, [sp, #16]
  405ed4:	d00000b4 	adrp	x20, 41b000 <GCC_except_table33+0xff8c>
  405ed8:	9131c294 	add	x20, x20, #0xc70
  405edc:	a9025bf5 	stp	x21, x22, [sp, #32]
  405ee0:	d00000b5 	adrp	x21, 41b000 <GCC_except_table33+0xff8c>
  405ee4:	913162b5 	add	x21, x21, #0xc58
  405ee8:	cb150294 	sub	x20, x20, x21
  405eec:	2a0003f6 	mov	w22, w0
  405ef0:	a90363f7 	stp	x23, x24, [sp, #48]
  405ef4:	aa0103f7 	mov	x23, x1
  405ef8:	aa0203f8 	mov	x24, x2
  405efc:	97ffef31 	bl	401bc0 <_init>
  405f00:	eb940fff 	cmp	xzr, x20, asr #3
  405f04:	54000160 	b.eq	405f30 <__libc_csu_init+0x68>  // b.none
  405f08:	9343fe94 	asr	x20, x20, #3
  405f0c:	d2800013 	mov	x19, #0x0                   	// #0
  405f10:	f8737aa3 	ldr	x3, [x21, x19, lsl #3]
  405f14:	aa1803e2 	mov	x2, x24
  405f18:	91000673 	add	x19, x19, #0x1
  405f1c:	aa1703e1 	mov	x1, x23
  405f20:	2a1603e0 	mov	w0, w22
  405f24:	d63f0060 	blr	x3
  405f28:	eb13029f 	cmp	x20, x19
  405f2c:	54ffff21 	b.ne	405f10 <__libc_csu_init+0x48>  // b.any
  405f30:	a94153f3 	ldp	x19, x20, [sp, #16]
  405f34:	a9425bf5 	ldp	x21, x22, [sp, #32]
  405f38:	a94363f7 	ldp	x23, x24, [sp, #48]
  405f3c:	a8c47bfd 	ldp	x29, x30, [sp], #64
  405f40:	d65f03c0 	ret
  405f44:	d503201f 	nop

0000000000405f48 <__libc_csu_fini>:
  405f48:	d65f03c0 	ret

Disassembly of section .fini:

0000000000405f4c <_fini>:
  405f4c:	a9bf7bfd 	stp	x29, x30, [sp, #-16]!
  405f50:	910003fd 	mov	x29, sp
  405f54:	a8c17bfd 	ldp	x29, x30, [sp], #16
  405f58:	d65f03c0 	ret
